TN:
SF:/home/thanga-inc-5829/Documents/Syringr_project/include/command_parser.hpp
FN:8,8,_ZN13commandparserC2EP16PumpStateMachine
FNDA:5,_ZN13commandparserC2EP16PumpStateMachine
FNF:1
FNH:1
DA:8,5
LF:1
LH:1
end_of_record
TN:
SF:/home/thanga-inc-5829/Documents/Syringr_project/include/i_pump_state.hpp
FN:7,9,_ZN9pumpState10setcontextEP16PumpStateMachine
FNDA:155,_ZN9pumpState10setcontextEP16PumpStateMachine
FNF:1
FNH:1
DA:7,155
DA:8,155
DA:9,155
LF:3
LH:3
end_of_record
TN:
SF:/home/thanga-inc-5829/Documents/Syringr_project/include/pump_state_machine.hpp
FN:19,22,_ZN16PumpStateMachineC2ER12AlarmManager
FNDA:48,_ZN16PumpStateMachineC2ER12AlarmManager
FNF:1
FNH:1
DA:19,48
DA:20,48
DA:21,48
DA:22,48
LF:4
LH:4
end_of_record
TN:
SF:/home/thanga-inc-5829/Documents/Syringr_project/src/alarm_manager.cpp
FN:3,6,_ZN12AlarmManager3addEP13Alarmobserver
FN:7,12,_ZN12AlarmManager6notifyEv
FNDA:20,_ZN12AlarmManager3addEP13Alarmobserver
FNDA:25,_ZN12AlarmManager6notifyEv
FNF:2
FNH:2
DA:3,20
DA:4,20
DA:5,20
DA:6,20
DA:7,25
DA:8,49
DA:9,24
DA:11,25
DA:12,25
LF:9
LH:9
end_of_record
TN:
SF:/home/thanga-inc-5829/Documents/Syringr_project/src/command_parser.cpp
FN:2,15,_ZN13commandparser5parseEPKc
FNDA:5,_ZN13commandparser5parseEPKc
FNF:1
FNH:1
DA:2,5
DA:3,5
DA:4,1
DA:6,4
DA:7,1
DA:9,3
DA:10,1
DA:12,2
DA:13,1
DA:15,5
LF:10
LH:10
end_of_record
TN:
SF:/home/thanga-inc-5829/Documents/Syringr_project/src/pump_state_machine.cpp
FN:11,13,_ZN16PumpStateMachine5pauseEv
FN:14,16,_ZN16PumpStateMachine9occlusionEv
FN:17,19,_ZN16PumpStateMachine5startEv
FN:20,22,_ZN16PumpStateMachine8completeEv
FN:23,25,_ZN16PumpStateMachine7setrateEf
FN:3,7,_ZN16PumpStateMachine8setstateEP9pumpState
FN:8,10,_ZN16PumpStateMachine4stopEv
FNDA:15,_ZN16PumpStateMachine5pauseEv
FNDA:13,_ZN16PumpStateMachine9occlusionEv
FNDA:75,_ZN16PumpStateMachine5startEv
FNDA:13,_ZN16PumpStateMachine8completeEv
FNDA:3,_ZN16PumpStateMachine7setrateEf
FNDA:107,_ZN16PumpStateMachine8setstateEP9pumpState
FNDA:9,_ZN16PumpStateMachine4stopEv
FNF:7
FNH:7
DA:3,107
DA:4,107
DA:5,107
DA:6,107
DA:7,107
DA:8,9
DA:9,9
DA:10,9
DA:11,15
DA:12,15
DA:13,15
DA:14,13
DA:15,13
DA:16,13
DA:17,75
DA:18,75
DA:19,75
DA:20,13
DA:21,13
DA:22,13
DA:23,3
DA:24,3
DA:25,3
LF:23
LH:23
end_of_record
TN:
SF:/home/thanga-inc-5829/Documents/Syringr_project/src/states/state_complete.cpp
FN:10,10,_ZN13completeState5startEv
FN:11,11,_ZN13completeState4stopEv
FN:12,12,_ZN13completeState5pauseEv
FN:13,13,_ZN13completeState9occlusionEv
FN:14,14,_ZN13completeState8completeEv
FN:9,9,_ZN13completeState7onenterEv
FNDA:2,_ZN13completeState5startEv
FNDA:1,_ZN13completeState4stopEv
FNDA:1,_ZN13completeState5pauseEv
FNDA:1,_ZN13completeState9occlusionEv
FNDA:1,_ZN13completeState8completeEv
FNDA:8,_ZN13completeState7onenterEv
FNF:6
FNH:6
DA:9,8
DA:10,2
DA:11,1
DA:12,1
DA:13,1
DA:14,1
LF:6
LH:6
end_of_record
TN:
SF:/home/thanga-inc-5829/Documents/Syringr_project/src/states/state_idle.cpp
FN:10,10,_ZN9idleState5startEv
FN:11,11,_ZN9idleState4stopEv
FN:12,12,_ZN9idleState5pauseEv
FN:13,13,_ZN9idleState9occlusionEv
FN:14,14,_ZN9idleState8completeEv
FN:9,9,_ZN9idleState7onenterEv
FNDA:38,_ZN9idleState5startEv
FNDA:1,_ZN9idleState4stopEv
FNDA:1,_ZN9idleState5pauseEv
FNDA:1,_ZN9idleState9occlusionEv
FNDA:1,_ZN9idleState8completeEv
FNDA:7,_ZN9idleState7onenterEv
FNF:6
FNH:6
DA:9,7
DA:10,38
DA:11,1
DA:12,1
DA:13,1
DA:14,1
LF:6
LH:6
end_of_record
TN:
SF:/home/thanga-inc-5829/Documents/Syringr_project/src/states/state_infusing.cpp
FN:10,10,_ZN13infusingState7onenterEv
FN:11,11,_ZN13infusingState5startEv
FN:12,12,_ZN13infusingState4stopEv
FN:13,13,_ZN13infusingState5pauseEv
FN:14,14,_ZN13infusingState9occlusionEv
FN:15,15,_ZN13infusingState8completeEv
FNDA:33,_ZN13infusingState7onenterEv
FNDA:1,_ZN13infusingState5startEv
FNDA:2,_ZN13infusingState4stopEv
FNDA:10,_ZN13infusingState5pauseEv
FNDA:8,_ZN13infusingState9occlusionEv
FNDA:8,_ZN13infusingState8completeEv
FNF:6
FNH:6
DA:10,33
DA:11,1
DA:12,2
DA:13,10
DA:14,8
DA:15,8
LF:6
LH:6
end_of_record
TN:
SF:/home/thanga-inc-5829/Documents/Syringr_project/src/states/state_occlusion_alarm.cpp
FN:10,10,_ZN14occlusionState5startEv
FN:11,11,_ZN14occlusionState4stopEv
FN:12,12,_ZN14occlusionState5pauseEv
FN:13,13,_ZN14occlusionState9occlusionEv
FN:14,14,_ZN14occlusionState8completeEv
FN:9,9,_ZN14occlusionState7onenterEv
FNDA:1,_ZN14occlusionState5startEv
FNDA:2,_ZN14occlusionState4stopEv
FNDA:1,_ZN14occlusionState5pauseEv
FNDA:1,_ZN14occlusionState9occlusionEv
FNDA:1,_ZN14occlusionState8completeEv
FNDA:9,_ZN14occlusionState7onenterEv
FNF:6
FNH:6
DA:9,9
DA:10,1
DA:11,2
DA:12,1
DA:13,1
DA:14,1
LF:6
LH:6
end_of_record
TN:
SF:/home/thanga-inc-5829/Documents/Syringr_project/src/states/state_paused.cpp
FN:10,10,_ZN12pausingState5startEv
FN:11,11,_ZN12pausingState4stopEv
FN:12,12,_ZN12pausingState5pauseEv
FN:13,13,_ZN12pausingState9occlusionEv
FN:14,14,_ZN12pausingState8completeEv
FN:9,9,_ZN12pausingState7onenterEv
FNDA:2,_ZN12pausingState5startEv
FNDA:2,_ZN12pausingState4stopEv
FNDA:1,_ZN12pausingState5pauseEv
FNDA:1,_ZN12pausingState9occlusionEv
FNDA:1,_ZN12pausingState8completeEv
FNDA:10,_ZN12pausingState7onenterEv
FNF:6
FNH:6
DA:9,10
DA:10,2
DA:11,2
DA:12,1
DA:13,1
DA:14,1
LF:6
LH:6
end_of_record
TN:
SF:/home/thanga-inc-5829/Documents/Syringr_project/src/states/state_priming.cpp
FN:10,10,_ZN12primingState5startEv
FN:11,11,_ZN12primingState4stopEv
FN:12,12,_ZN12primingState5pauseEv
FN:13,13,_ZN12primingState9occlusionEv
FN:14,14,_ZN12primingState8completeEv
FN:9,9,_ZN12primingState7onenterEv
FNDA:31,_ZN12primingState5startEv
FNDA:1,_ZN12primingState4stopEv
FNDA:1,_ZN12primingState5pauseEv
FNDA:1,_ZN12primingState9occlusionEv
FNDA:1,_ZN12primingState8completeEv
FNDA:40,_ZN12primingState7onenterEv
FNF:6
FNH:6
DA:9,40
DA:10,31
DA:11,1
DA:12,1
DA:13,1
DA:14,1
LF:6
LH:6
end_of_record
TN:
SF:/home/thanga-inc-5829/Documents/Syringr_project/src/volume_tracker.cpp
FN:2,4,_ZN13Volumetracker6updateEj
FN:5,7,_ZN13Volumetracker6getvolEv
FN:8,10,_ZN13Volumetracker5resetEv
FNDA:4,_ZN13Volumetracker6updateEj
FNDA:4,_ZN13Volumetracker6getvolEv
FNDA:1,_ZN13Volumetracker5resetEv
FNF:3
FNH:3
DA:2,4
DA:3,4
DA:4,4
DA:5,4
DA:6,4
DA:8,1
DA:9,1
DA:10,1
LF:8
LH:8
end_of_record
TN:
SF:/home/thanga-inc-5829/Documents/Syringr_project/tests/test_alarm.cpp
FN:15,15,_ZN34pumptest_alarm_add_two_notify_Test8TestBodyEv
FN:15,15,_ZN34pumptest_alarm_add_two_notify_TestC2Ev
FN:15,15,_ZN34pumptest_alarm_add_two_notify_TestD0Ev
FN:15,15,_ZN34pumptest_alarm_add_two_notify_TestD2Ev
FN:27,27,_ZN32pumptest_alarm_notify_twice_Test8TestBodyEv
FN:27,27,_ZN32pumptest_alarm_notify_twice_TestC2Ev
FN:27,27,_ZN32pumptest_alarm_notify_twice_TestD0Ev
FN:27,27,_ZN32pumptest_alarm_notify_twice_TestD2Ev
FN:34,37,main
FN:8,8,_ZN34pumptest_alarm_add_one_notify_Test8TestBodyEv
FN:8,8,_ZN34pumptest_alarm_add_one_notify_TestC2Ev
FN:8,8,_ZN34pumptest_alarm_add_one_notify_TestD0Ev
FN:8,8,_ZN34pumptest_alarm_add_one_notify_TestD2Ev
FNDA:4,_ZN34pumptest_alarm_add_two_notify_Test8TestBodyEv
FNDA:4,_ZN34pumptest_alarm_add_two_notify_TestC2Ev
FNDA:4,_ZN34pumptest_alarm_add_two_notify_TestD0Ev
FNDA:4,_ZN34pumptest_alarm_add_two_notify_TestD2Ev
FNDA:4,_ZN32pumptest_alarm_notify_twice_Test8TestBodyEv
FNDA:4,_ZN32pumptest_alarm_notify_twice_TestC2Ev
FNDA:4,_ZN32pumptest_alarm_notify_twice_TestD0Ev
FNDA:4,_ZN32pumptest_alarm_notify_twice_TestD2Ev
FNDA:4,main
FNDA:4,_ZN34pumptest_alarm_add_one_notify_Test8TestBodyEv
FNDA:4,_ZN34pumptest_alarm_add_one_notify_TestC2Ev
FNDA:4,_ZN34pumptest_alarm_add_one_notify_TestD0Ev
FNDA:4,_ZN34pumptest_alarm_add_one_notify_TestD2Ev
FNF:13
FNH:13
DA:8,16
DA:9,4
DA:10,4
DA:11,4
DA:12,4
DA:13,4
DA:15,16
DA:16,4
DA:17,4
DA:18,4
DA:19,4
DA:20,4
DA:21,4
DA:22,4
DA:23,4
DA:24,4
DA:25,4
DA:27,16
DA:28,4
DA:29,4
DA:30,4
DA:31,4
DA:32,4
DA:33,4
DA:34,4
DA:35,4
DA:36,4
LF:27
LH:27
end_of_record
TN:
SF:/home/thanga-inc-5829/Documents/Syringr_project/tests/test_command.cpp
FN:13,13,_ZN31command_test_command_start_Test8TestBodyEv
FN:13,13,_ZN31command_test_command_start_TestC2Ev
FN:13,13,_ZN31command_test_command_start_TestD0Ev
FN:13,13,_ZN31command_test_command_start_TestD2Ev
FN:18,18,_ZN30command_test_command_stop_Test8TestBodyEv
FN:18,18,_ZN30command_test_command_stop_TestC2Ev
FN:18,18,_ZN30command_test_command_stop_TestD0Ev
FN:18,18,_ZN30command_test_command_stop_TestD2Ev
FN:25,25,_ZN31command_test_command_pause_Test8TestBodyEv
FN:25,25,_ZN31command_test_command_pause_TestC2Ev
FN:25,25,_ZN31command_test_command_pause_TestD0Ev
FN:25,25,_ZN31command_test_command_pause_TestD2Ev
FN:32,32,_ZN33command_test_command_setrate_Test8TestBodyEv
FN:32,32,_ZN33command_test_command_setrate_TestC2Ev
FN:32,32,_ZN33command_test_command_setrate_TestD0Ev
FN:32,32,_ZN33command_test_command_setrate_TestD2Ev
FN:37,37,_ZN49command_test_command_unknown_no_state_change_Test8TestBodyEv
FN:37,37,_ZN49command_test_command_unknown_no_state_change_TestC2Ev
FN:37,37,_ZN49command_test_command_unknown_no_state_change_TestD0Ev
FN:37,37,_ZN49command_test_command_unknown_no_state_change_TestD2Ev
FN:42,45,main
FNDA:1,_ZN31command_test_command_start_Test8TestBodyEv
FNDA:1,_ZN31command_test_command_start_TestC2Ev
FNDA:1,_ZN31command_test_command_start_TestD0Ev
FNDA:1,_ZN31command_test_command_start_TestD2Ev
FNDA:1,_ZN30command_test_command_stop_Test8TestBodyEv
FNDA:1,_ZN30command_test_command_stop_TestC2Ev
FNDA:1,_ZN30command_test_command_stop_TestD0Ev
FNDA:1,_ZN30command_test_command_stop_TestD2Ev
FNDA:1,_ZN31command_test_command_pause_Test8TestBodyEv
FNDA:1,_ZN31command_test_command_pause_TestC2Ev
FNDA:1,_ZN31command_test_command_pause_TestD0Ev
FNDA:1,_ZN31command_test_command_pause_TestD2Ev
FNDA:1,_ZN33command_test_command_setrate_Test8TestBodyEv
FNDA:1,_ZN33command_test_command_setrate_TestC2Ev
FNDA:1,_ZN33command_test_command_setrate_TestD0Ev
FNDA:1,_ZN33command_test_command_setrate_TestD2Ev
FNDA:1,_ZN49command_test_command_unknown_no_state_change_Test8TestBodyEv
FNDA:1,_ZN49command_test_command_unknown_no_state_change_TestC2Ev
FNDA:1,_ZN49command_test_command_unknown_no_state_change_TestD0Ev
FNDA:1,_ZN49command_test_command_unknown_no_state_change_TestD2Ev
FNDA:1,main
FNF:21
FNH:21
DA:13,4
DA:14,1
DA:15,1
DA:16,1
DA:18,4
DA:19,1
DA:20,1
DA:21,1
DA:22,1
DA:23,1
DA:25,4
DA:26,1
DA:27,1
DA:28,1
DA:29,1
DA:30,1
DA:32,4
DA:33,1
DA:34,1
DA:35,1
DA:37,4
DA:38,1
DA:39,1
DA:40,1
DA:42,1
DA:43,1
DA:44,1
LF:27
LH:27
end_of_record
TN:
SF:/home/thanga-inc-5829/Documents/Syringr_project/tests/test_pump_state_machine.cpp
FN:10,10,_ZN49pump_state_machine_test_initialstate_as_idle_Test8TestBodyEv
FN:10,10,_ZN49pump_state_machine_test_initialstate_as_idle_TestC2Ev
FN:10,10,_ZN49pump_state_machine_test_initialstate_as_idle_TestD0Ev
FN:10,10,_ZN49pump_state_machine_test_initialstate_as_idle_TestD2Ev
FN:13,13,_ZN50pump_state_machine_test_start_goes_to_priming_Test8TestBodyEv
FN:13,13,_ZN50pump_state_machine_test_start_goes_to_priming_TestC2Ev
FN:13,13,_ZN50pump_state_machine_test_start_goes_to_priming_TestD0Ev
FN:13,13,_ZN50pump_state_machine_test_start_goes_to_priming_TestD2Ev
FN:18,18,_ZN59pump_state_machine_test_priming_start_goes_to_infusing_Test8TestBodyEv
FN:18,18,_ZN59pump_state_machine_test_priming_start_goes_to_infusing_TestC2Ev
FN:18,18,_ZN59pump_state_machine_test_priming_start_goes_to_infusing_TestD0Ev
FN:18,18,_ZN59pump_state_machine_test_priming_start_goes_to_infusing_TestD2Ev
FN:24,24,_ZN59pump_state_machine_test_infusing_pause_goes_to_pausing_Test8TestBodyEv
FN:24,24,_ZN59pump_state_machine_test_infusing_pause_goes_to_pausing_TestC2Ev
FN:24,24,_ZN59pump_state_machine_test_infusing_pause_goes_to_pausing_TestD0Ev
FN:24,24,_ZN59pump_state_machine_test_infusing_pause_goes_to_pausing_TestD2Ev
FN:31,31,_ZN65pump_state_machine_test_infusing_occlusion_goes_to_occlusion_Test8TestBodyEv
FN:31,31,_ZN65pump_state_machine_test_infusing_occlusion_goes_to_occlusion_TestC2Ev
FN:31,31,_ZN65pump_state_machine_test_infusing_occlusion_goes_to_occlusion_TestD0Ev
FN:31,31,_ZN65pump_state_machine_test_infusing_occlusion_goes_to_occlusion_TestD2Ev
FN:38,38,_ZN63pump_state_machine_test_infusing_complete_goes_to_complete_Test8TestBodyEv
FN:38,38,_ZN63pump_state_machine_test_infusing_complete_goes_to_complete_TestC2Ev
FN:38,38,_ZN63pump_state_machine_test_infusing_complete_goes_to_complete_TestD0Ev
FN:38,38,_ZN63pump_state_machine_test_infusing_complete_goes_to_complete_TestD2Ev
FN:45,45,_ZN59pump_state_machine_test_pausing_start_goes_to_infusing_Test8TestBodyEv
FN:45,45,_ZN59pump_state_machine_test_pausing_start_goes_to_infusing_TestC2Ev
FN:45,45,_ZN59pump_state_machine_test_pausing_start_goes_to_infusing_TestD0Ev
FN:45,45,_ZN59pump_state_machine_test_pausing_start_goes_to_infusing_TestD2Ev
FN:53,53,_ZN54pump_state_machine_test_pausing_stop_goes_to_idle_Test8TestBodyEv
FN:53,53,_ZN54pump_state_machine_test_pausing_stop_goes_to_idle_TestC2Ev
FN:53,53,_ZN54pump_state_machine_test_pausing_stop_goes_to_idle_TestD0Ev
FN:53,53,_ZN54pump_state_machine_test_pausing_stop_goes_to_idle_TestD2Ev
FN:61,67,_ZN56pump_state_machine_test_occlusion_stop_goes_to_idle_Test8TestBodyEv
FN:61,67,_ZN56pump_state_machine_test_occlusion_stop_goes_to_idle_TestC2Ev
FN:61,67,_ZN56pump_state_machine_test_occlusion_stop_goes_to_idle_TestD0Ev
FN:61,67,_ZN56pump_state_machine_test_occlusion_stop_goes_to_idle_TestD2Ev
FN:69,69,_ZN59pump_state_machine_test_complete_start_goes_to_priming_Test8TestBodyEv
FN:69,69,_ZN59pump_state_machine_test_complete_start_goes_to_priming_TestC2Ev
FN:69,69,_ZN59pump_state_machine_test_complete_start_goes_to_priming_TestD0Ev
FN:69,69,_ZN59pump_state_machine_test_complete_start_goes_to_priming_TestD2Ev
FN:77,77,_ZN53pump_state_machine_test_setrate_sets_motor_delay_Test8TestBodyEv
FN:77,77,_ZN53pump_state_machine_test_setrate_sets_motor_delay_TestC2Ev
FN:77,77,_ZN53pump_state_machine_test_setrate_sets_motor_delay_TestD0Ev
FN:77,77,_ZN53pump_state_machine_test_setrate_sets_motor_delay_TestD2Ev
FN:82,85,main
FNDA:1,_ZN49pump_state_machine_test_initialstate_as_idle_Test8TestBodyEv
FNDA:1,_ZN49pump_state_machine_test_initialstate_as_idle_TestC2Ev
FNDA:1,_ZN49pump_state_machine_test_initialstate_as_idle_TestD0Ev
FNDA:1,_ZN49pump_state_machine_test_initialstate_as_idle_TestD2Ev
FNDA:1,_ZN50pump_state_machine_test_start_goes_to_priming_Test8TestBodyEv
FNDA:1,_ZN50pump_state_machine_test_start_goes_to_priming_TestC2Ev
FNDA:1,_ZN50pump_state_machine_test_start_goes_to_priming_TestD0Ev
FNDA:1,_ZN50pump_state_machine_test_start_goes_to_priming_TestD2Ev
FNDA:1,_ZN59pump_state_machine_test_priming_start_goes_to_infusing_Test8TestBodyEv
FNDA:1,_ZN59pump_state_machine_test_priming_start_goes_to_infusing_TestC2Ev
FNDA:1,_ZN59pump_state_machine_test_priming_start_goes_to_infusing_TestD0Ev
FNDA:1,_ZN59pump_state_machine_test_priming_start_goes_to_infusing_TestD2Ev
FNDA:1,_ZN59pump_state_machine_test_infusing_pause_goes_to_pausing_Test8TestBodyEv
FNDA:1,_ZN59pump_state_machine_test_infusing_pause_goes_to_pausing_TestC2Ev
FNDA:1,_ZN59pump_state_machine_test_infusing_pause_goes_to_pausing_TestD0Ev
FNDA:1,_ZN59pump_state_machine_test_infusing_pause_goes_to_pausing_TestD2Ev
FNDA:1,_ZN65pump_state_machine_test_infusing_occlusion_goes_to_occlusion_Test8TestBodyEv
FNDA:1,_ZN65pump_state_machine_test_infusing_occlusion_goes_to_occlusion_TestC2Ev
FNDA:1,_ZN65pump_state_machine_test_infusing_occlusion_goes_to_occlusion_TestD0Ev
FNDA:1,_ZN65pump_state_machine_test_infusing_occlusion_goes_to_occlusion_TestD2Ev
FNDA:1,_ZN63pump_state_machine_test_infusing_complete_goes_to_complete_Test8TestBodyEv
FNDA:1,_ZN63pump_state_machine_test_infusing_complete_goes_to_complete_TestC2Ev
FNDA:1,_ZN63pump_state_machine_test_infusing_complete_goes_to_complete_TestD0Ev
FNDA:1,_ZN63pump_state_machine_test_infusing_complete_goes_to_complete_TestD2Ev
FNDA:1,_ZN59pump_state_machine_test_pausing_start_goes_to_infusing_Test8TestBodyEv
FNDA:1,_ZN59pump_state_machine_test_pausing_start_goes_to_infusing_TestC2Ev
FNDA:1,_ZN59pump_state_machine_test_pausing_start_goes_to_infusing_TestD0Ev
FNDA:1,_ZN59pump_state_machine_test_pausing_start_goes_to_infusing_TestD2Ev
FNDA:1,_ZN54pump_state_machine_test_pausing_stop_goes_to_idle_Test8TestBodyEv
FNDA:1,_ZN54pump_state_machine_test_pausing_stop_goes_to_idle_TestC2Ev
FNDA:1,_ZN54pump_state_machine_test_pausing_stop_goes_to_idle_TestD0Ev
FNDA:1,_ZN54pump_state_machine_test_pausing_stop_goes_to_idle_TestD2Ev
FNDA:1,_ZN56pump_state_machine_test_occlusion_stop_goes_to_idle_Test8TestBodyEv
FNDA:1,_ZN56pump_state_machine_test_occlusion_stop_goes_to_idle_TestC2Ev
FNDA:1,_ZN56pump_state_machine_test_occlusion_stop_goes_to_idle_TestD0Ev
FNDA:1,_ZN56pump_state_machine_test_occlusion_stop_goes_to_idle_TestD2Ev
FNDA:1,_ZN59pump_state_machine_test_complete_start_goes_to_priming_Test8TestBodyEv
FNDA:1,_ZN59pump_state_machine_test_complete_start_goes_to_priming_TestC2Ev
FNDA:1,_ZN59pump_state_machine_test_complete_start_goes_to_priming_TestD0Ev
FNDA:1,_ZN59pump_state_machine_test_complete_start_goes_to_priming_TestD2Ev
FNDA:1,_ZN53pump_state_machine_test_setrate_sets_motor_delay_Test8TestBodyEv
FNDA:1,_ZN53pump_state_machine_test_setrate_sets_motor_delay_TestC2Ev
FNDA:1,_ZN53pump_state_machine_test_setrate_sets_motor_delay_TestD0Ev
FNDA:1,_ZN53pump_state_machine_test_setrate_sets_motor_delay_TestD2Ev
FNDA:1,main
FNF:45
FNH:45
DA:10,4
DA:11,1
DA:12,1
DA:13,4
DA:14,1
DA:15,1
DA:16,1
DA:18,4
DA:19,1
DA:20,1
DA:21,1
DA:22,1
DA:24,4
DA:25,1
DA:26,1
DA:27,1
DA:28,1
DA:29,1
DA:31,4
DA:32,1
DA:33,1
DA:34,1
DA:35,1
DA:36,1
DA:38,4
DA:39,1
DA:40,1
DA:41,1
DA:42,1
DA:43,1
DA:45,4
DA:46,1
DA:47,1
DA:48,1
DA:49,1
DA:50,1
DA:51,1
DA:53,4
DA:54,1
DA:55,1
DA:56,1
DA:57,1
DA:58,1
DA:59,1
DA:61,4
DA:62,1
DA:63,1
DA:64,1
DA:65,1
DA:66,1
DA:67,1
DA:69,4
DA:70,1
DA:71,1
DA:72,1
DA:73,1
DA:74,1
DA:75,1
DA:77,4
DA:78,1
DA:79,1
DA:80,1
DA:82,1
DA:83,1
DA:84,1
LF:65
LH:65
end_of_record
TN:
SF:/home/thanga-inc-5829/Documents/Syringr_project/tests/test_states.cpp
FN:11,11,_ZN42pump_state_test_initial_state_is_idle_Test8TestBodyEv
FN:11,11,_ZN42pump_state_test_initial_state_is_idle_TestC2Ev
FN:11,11,_ZN42pump_state_test_initial_state_is_idle_TestD0Ev
FN:11,11,_ZN42pump_state_test_initial_state_is_idle_TestD2Ev
FN:16,16,_ZN44pump_state_test_idle_start_goes_priming_Test8TestBodyEv
FN:16,16,_ZN44pump_state_test_idle_start_goes_priming_TestC2Ev
FN:16,16,_ZN44pump_state_test_idle_start_goes_priming_TestD0Ev
FN:16,16,_ZN44pump_state_test_idle_start_goes_priming_TestD2Ev
FN:17,17,_ZN38pump_state_test_idle_stop_ignored_Test8TestBodyEv
FN:17,17,_ZN38pump_state_test_idle_stop_ignored_TestC2Ev
FN:17,17,_ZN38pump_state_test_idle_stop_ignored_TestD0Ev
FN:17,17,_ZN38pump_state_test_idle_stop_ignored_TestD2Ev
FN:18,18,_ZN39pump_state_test_idle_pause_ignored_Test8TestBodyEv
FN:18,18,_ZN39pump_state_test_idle_pause_ignored_TestC2Ev
FN:18,18,_ZN39pump_state_test_idle_pause_ignored_TestD0Ev
FN:18,18,_ZN39pump_state_test_idle_pause_ignored_TestD2Ev
FN:19,19,_ZN43pump_state_test_idle_occlusion_ignored_Test8TestBodyEv
FN:19,19,_ZN43pump_state_test_idle_occlusion_ignored_TestC2Ev
FN:19,19,_ZN43pump_state_test_idle_occlusion_ignored_TestD0Ev
FN:19,19,_ZN43pump_state_test_idle_occlusion_ignored_TestD2Ev
FN:20,20,_ZN42pump_state_test_idle_complete_ignored_Test8TestBodyEv
FN:20,20,_ZN42pump_state_test_idle_complete_ignored_TestC2Ev
FN:20,20,_ZN42pump_state_test_idle_complete_ignored_TestD0Ev
FN:20,20,_ZN42pump_state_test_idle_complete_ignored_TestD2Ev
FN:23,23,_ZN48pump_state_test_priming_start_goes_infusing_Test8TestBodyEv
FN:23,23,_ZN48pump_state_test_priming_start_goes_infusing_TestC2Ev
FN:23,23,_ZN48pump_state_test_priming_start_goes_infusing_TestD0Ev
FN:23,23,_ZN48pump_state_test_priming_start_goes_infusing_TestD2Ev
FN:24,24,_ZN43pump_state_test_priming_stop_goes_idle_Test8TestBodyEv
FN:24,24,_ZN43pump_state_test_priming_stop_goes_idle_TestC2Ev
FN:24,24,_ZN43pump_state_test_priming_stop_goes_idle_TestD0Ev
FN:24,24,_ZN43pump_state_test_priming_stop_goes_idle_TestD2Ev
FN:25,25,_ZN42pump_state_test_priming_pause_ignored_Test8TestBodyEv
FN:25,25,_ZN42pump_state_test_priming_pause_ignored_TestC2Ev
FN:25,25,_ZN42pump_state_test_priming_pause_ignored_TestD0Ev
FN:25,25,_ZN42pump_state_test_priming_pause_ignored_TestD2Ev
FN:26,26,_ZN53pump_state_test_priming_occlusion_goes_occlusion_Test8TestBodyEv
FN:26,26,_ZN53pump_state_test_priming_occlusion_goes_occlusion_TestC2Ev
FN:26,26,_ZN53pump_state_test_priming_occlusion_goes_occlusion_TestD0Ev
FN:26,26,_ZN53pump_state_test_priming_occlusion_goes_occlusion_TestD2Ev
FN:27,27,_ZN45pump_state_test_priming_complete_ignored_Test8TestBodyEv
FN:27,27,_ZN45pump_state_test_priming_complete_ignored_TestC2Ev
FN:27,27,_ZN45pump_state_test_priming_complete_ignored_TestD0Ev
FN:27,27,_ZN45pump_state_test_priming_complete_ignored_TestD2Ev
FN:30,30,_ZN43pump_state_test_infusing_start_ignored_Test8TestBodyEv
FN:30,30,_ZN43pump_state_test_infusing_start_ignored_TestC2Ev
FN:30,30,_ZN43pump_state_test_infusing_start_ignored_TestD0Ev
FN:30,30,_ZN43pump_state_test_infusing_start_ignored_TestD2Ev
FN:31,31,_ZN44pump_state_test_infusing_stop_goes_idle_Test8TestBodyEv
FN:31,31,_ZN44pump_state_test_infusing_stop_goes_idle_TestC2Ev
FN:31,31,_ZN44pump_state_test_infusing_stop_goes_idle_TestD0Ev
FN:31,31,_ZN44pump_state_test_infusing_stop_goes_idle_TestD2Ev
FN:32,32,_ZN48pump_state_test_infusing_pause_goes_pausing_Test8TestBodyEv
FN:32,32,_ZN48pump_state_test_infusing_pause_goes_pausing_TestC2Ev
FN:32,32,_ZN48pump_state_test_infusing_pause_goes_pausing_TestD0Ev
FN:32,32,_ZN48pump_state_test_infusing_pause_goes_pausing_TestD2Ev
FN:33,33,_ZN54pump_state_test_infusing_occlusion_goes_occlusion_Test8TestBodyEv
FN:33,33,_ZN54pump_state_test_infusing_occlusion_goes_occlusion_TestC2Ev
FN:33,33,_ZN54pump_state_test_infusing_occlusion_goes_occlusion_TestD0Ev
FN:33,33,_ZN54pump_state_test_infusing_occlusion_goes_occlusion_TestD2Ev
FN:34,34,_ZN52pump_state_test_infusing_complete_goes_complete_Test8TestBodyEv
FN:34,34,_ZN52pump_state_test_infusing_complete_goes_complete_TestC2Ev
FN:34,34,_ZN52pump_state_test_infusing_complete_goes_complete_TestD0Ev
FN:34,34,_ZN52pump_state_test_infusing_complete_goes_complete_TestD2Ev
FN:37,37,_ZN48pump_state_test_pausing_start_goes_infusing_Test8TestBodyEv
FN:37,37,_ZN48pump_state_test_pausing_start_goes_infusing_TestC2Ev
FN:37,37,_ZN48pump_state_test_pausing_start_goes_infusing_TestD0Ev
FN:37,37,_ZN48pump_state_test_pausing_start_goes_infusing_TestD2Ev
FN:38,38,_ZN43pump_state_test_pausing_stop_goes_idle_Test8TestBodyEv
FN:38,38,_ZN43pump_state_test_pausing_stop_goes_idle_TestC2Ev
FN:38,38,_ZN43pump_state_test_pausing_stop_goes_idle_TestD0Ev
FN:38,38,_ZN43pump_state_test_pausing_stop_goes_idle_TestD2Ev
FN:39,39,_ZN42pump_state_test_pausing_pause_ignored_Test8TestBodyEv
FN:39,39,_ZN42pump_state_test_pausing_pause_ignored_TestC2Ev
FN:39,39,_ZN42pump_state_test_pausing_pause_ignored_TestD0Ev
FN:39,39,_ZN42pump_state_test_pausing_pause_ignored_TestD2Ev
FN:40,40,_ZN46pump_state_test_pausing_occlusion_ignored_Test8TestBodyEv
FN:40,40,_ZN46pump_state_test_pausing_occlusion_ignored_TestC2Ev
FN:40,40,_ZN46pump_state_test_pausing_occlusion_ignored_TestD0Ev
FN:40,40,_ZN46pump_state_test_pausing_occlusion_ignored_TestD2Ev
FN:41,41,_ZN45pump_state_test_pausing_complete_ignored_Test8TestBodyEv
FN:41,41,_ZN45pump_state_test_pausing_complete_ignored_TestC2Ev
FN:41,41,_ZN45pump_state_test_pausing_complete_ignored_TestD0Ev
FN:41,41,_ZN45pump_state_test_pausing_complete_ignored_TestD2Ev
FN:44,44,_ZN45pump_state_test_occlusion_stop_goes_idle_Test8TestBodyEv
FN:44,44,_ZN45pump_state_test_occlusion_stop_goes_idle_TestC2Ev
FN:44,44,_ZN45pump_state_test_occlusion_stop_goes_idle_TestD0Ev
FN:44,44,_ZN45pump_state_test_occlusion_stop_goes_idle_TestD2Ev
FN:45,45,_ZN44pump_state_test_occlusion_start_ignored_Test8TestBodyEv
FN:45,45,_ZN44pump_state_test_occlusion_start_ignored_TestC2Ev
FN:45,45,_ZN44pump_state_test_occlusion_start_ignored_TestD0Ev
FN:45,45,_ZN44pump_state_test_occlusion_start_ignored_TestD2Ev
FN:46,46,_ZN44pump_state_test_occlusion_pause_ignored_Test8TestBodyEv
FN:46,46,_ZN44pump_state_test_occlusion_pause_ignored_TestC2Ev
FN:46,46,_ZN44pump_state_test_occlusion_pause_ignored_TestD0Ev
FN:46,46,_ZN44pump_state_test_occlusion_pause_ignored_TestD2Ev
FN:47,47,_ZN48pump_state_test_occlusion_occlusion_ignored_Test8TestBodyEv
FN:47,47,_ZN48pump_state_test_occlusion_occlusion_ignored_TestC2Ev
FN:47,47,_ZN48pump_state_test_occlusion_occlusion_ignored_TestD0Ev
FN:47,47,_ZN48pump_state_test_occlusion_occlusion_ignored_TestD2Ev
FN:48,48,_ZN47pump_state_test_occlusion_complete_ignored_Test8TestBodyEv
FN:48,48,_ZN47pump_state_test_occlusion_complete_ignored_TestC2Ev
FN:48,48,_ZN47pump_state_test_occlusion_complete_ignored_TestD0Ev
FN:48,48,_ZN47pump_state_test_occlusion_complete_ignored_TestD2Ev
FN:51,51,_ZN48pump_state_test_complete_start_goes_priming_Test8TestBodyEv
FN:51,51,_ZN48pump_state_test_complete_start_goes_priming_TestC2Ev
FN:51,51,_ZN48pump_state_test_complete_start_goes_priming_TestD0Ev
FN:51,51,_ZN48pump_state_test_complete_start_goes_priming_TestD2Ev
FN:52,52,_ZN42pump_state_test_complete_stop_ignored_Test8TestBodyEv
FN:52,52,_ZN42pump_state_test_complete_stop_ignored_TestC2Ev
FN:52,52,_ZN42pump_state_test_complete_stop_ignored_TestD0Ev
FN:52,52,_ZN42pump_state_test_complete_stop_ignored_TestD2Ev
FN:53,53,_ZN43pump_state_test_complete_pause_ignored_Test8TestBodyEv
FN:53,53,_ZN43pump_state_test_complete_pause_ignored_TestC2Ev
FN:53,53,_ZN43pump_state_test_complete_pause_ignored_TestD0Ev
FN:53,53,_ZN43pump_state_test_complete_pause_ignored_TestD2Ev
FN:54,54,_ZN47pump_state_test_complete_occlusion_ignored_Test8TestBodyEv
FN:54,54,_ZN47pump_state_test_complete_occlusion_ignored_TestC2Ev
FN:54,54,_ZN47pump_state_test_complete_occlusion_ignored_TestD0Ev
FN:54,54,_ZN47pump_state_test_complete_occlusion_ignored_TestD2Ev
FN:55,55,_ZN46pump_state_test_complete_complete_ignored_Test8TestBodyEv
FN:55,55,_ZN46pump_state_test_complete_complete_ignored_TestC2Ev
FN:55,55,_ZN46pump_state_test_complete_complete_ignored_TestD0Ev
FN:55,55,_ZN46pump_state_test_complete_complete_ignored_TestD2Ev
FN:58,58,_ZN45pump_state_test_setrate_sets_motor_delay_Test8TestBodyEv
FN:58,58,_ZN45pump_state_test_setrate_sets_motor_delay_TestC2Ev
FN:58,58,_ZN45pump_state_test_setrate_sets_motor_delay_TestD0Ev
FN:58,58,_ZN45pump_state_test_setrate_sets_motor_delay_TestD2Ev
FN:63,66,main
FNDA:1,_ZN42pump_state_test_initial_state_is_idle_Test8TestBodyEv
FNDA:1,_ZN42pump_state_test_initial_state_is_idle_TestC2Ev
FNDA:1,_ZN42pump_state_test_initial_state_is_idle_TestD0Ev
FNDA:1,_ZN42pump_state_test_initial_state_is_idle_TestD2Ev
FNDA:1,_ZN44pump_state_test_idle_start_goes_priming_Test8TestBodyEv
FNDA:1,_ZN44pump_state_test_idle_start_goes_priming_TestC2Ev
FNDA:1,_ZN44pump_state_test_idle_start_goes_priming_TestD0Ev
FNDA:1,_ZN44pump_state_test_idle_start_goes_priming_TestD2Ev
FNDA:1,_ZN38pump_state_test_idle_stop_ignored_Test8TestBodyEv
FNDA:1,_ZN38pump_state_test_idle_stop_ignored_TestC2Ev
FNDA:1,_ZN38pump_state_test_idle_stop_ignored_TestD0Ev
FNDA:1,_ZN38pump_state_test_idle_stop_ignored_TestD2Ev
FNDA:1,_ZN39pump_state_test_idle_pause_ignored_Test8TestBodyEv
FNDA:1,_ZN39pump_state_test_idle_pause_ignored_TestC2Ev
FNDA:1,_ZN39pump_state_test_idle_pause_ignored_TestD0Ev
FNDA:1,_ZN39pump_state_test_idle_pause_ignored_TestD2Ev
FNDA:1,_ZN43pump_state_test_idle_occlusion_ignored_Test8TestBodyEv
FNDA:1,_ZN43pump_state_test_idle_occlusion_ignored_TestC2Ev
FNDA:1,_ZN43pump_state_test_idle_occlusion_ignored_TestD0Ev
FNDA:1,_ZN43pump_state_test_idle_occlusion_ignored_TestD2Ev
FNDA:1,_ZN42pump_state_test_idle_complete_ignored_Test8TestBodyEv
FNDA:1,_ZN42pump_state_test_idle_complete_ignored_TestC2Ev
FNDA:1,_ZN42pump_state_test_idle_complete_ignored_TestD0Ev
FNDA:1,_ZN42pump_state_test_idle_complete_ignored_TestD2Ev
FNDA:1,_ZN48pump_state_test_priming_start_goes_infusing_Test8TestBodyEv
FNDA:1,_ZN48pump_state_test_priming_start_goes_infusing_TestC2Ev
FNDA:1,_ZN48pump_state_test_priming_start_goes_infusing_TestD0Ev
FNDA:1,_ZN48pump_state_test_priming_start_goes_infusing_TestD2Ev
FNDA:1,_ZN43pump_state_test_priming_stop_goes_idle_Test8TestBodyEv
FNDA:1,_ZN43pump_state_test_priming_stop_goes_idle_TestC2Ev
FNDA:1,_ZN43pump_state_test_priming_stop_goes_idle_TestD0Ev
FNDA:1,_ZN43pump_state_test_priming_stop_goes_idle_TestD2Ev
FNDA:1,_ZN42pump_state_test_priming_pause_ignored_Test8TestBodyEv
FNDA:1,_ZN42pump_state_test_priming_pause_ignored_TestC2Ev
FNDA:1,_ZN42pump_state_test_priming_pause_ignored_TestD0Ev
FNDA:1,_ZN42pump_state_test_priming_pause_ignored_TestD2Ev
FNDA:1,_ZN53pump_state_test_priming_occlusion_goes_occlusion_Test8TestBodyEv
FNDA:1,_ZN53pump_state_test_priming_occlusion_goes_occlusion_TestC2Ev
FNDA:1,_ZN53pump_state_test_priming_occlusion_goes_occlusion_TestD0Ev
FNDA:1,_ZN53pump_state_test_priming_occlusion_goes_occlusion_TestD2Ev
FNDA:1,_ZN45pump_state_test_priming_complete_ignored_Test8TestBodyEv
FNDA:1,_ZN45pump_state_test_priming_complete_ignored_TestC2Ev
FNDA:1,_ZN45pump_state_test_priming_complete_ignored_TestD0Ev
FNDA:1,_ZN45pump_state_test_priming_complete_ignored_TestD2Ev
FNDA:1,_ZN43pump_state_test_infusing_start_ignored_Test8TestBodyEv
FNDA:1,_ZN43pump_state_test_infusing_start_ignored_TestC2Ev
FNDA:1,_ZN43pump_state_test_infusing_start_ignored_TestD0Ev
FNDA:1,_ZN43pump_state_test_infusing_start_ignored_TestD2Ev
FNDA:1,_ZN44pump_state_test_infusing_stop_goes_idle_Test8TestBodyEv
FNDA:1,_ZN44pump_state_test_infusing_stop_goes_idle_TestC2Ev
FNDA:1,_ZN44pump_state_test_infusing_stop_goes_idle_TestD0Ev
FNDA:1,_ZN44pump_state_test_infusing_stop_goes_idle_TestD2Ev
FNDA:1,_ZN48pump_state_test_infusing_pause_goes_pausing_Test8TestBodyEv
FNDA:1,_ZN48pump_state_test_infusing_pause_goes_pausing_TestC2Ev
FNDA:1,_ZN48pump_state_test_infusing_pause_goes_pausing_TestD0Ev
FNDA:1,_ZN48pump_state_test_infusing_pause_goes_pausing_TestD2Ev
FNDA:1,_ZN54pump_state_test_infusing_occlusion_goes_occlusion_Test8TestBodyEv
FNDA:1,_ZN54pump_state_test_infusing_occlusion_goes_occlusion_TestC2Ev
FNDA:1,_ZN54pump_state_test_infusing_occlusion_goes_occlusion_TestD0Ev
FNDA:1,_ZN54pump_state_test_infusing_occlusion_goes_occlusion_TestD2Ev
FNDA:1,_ZN52pump_state_test_infusing_complete_goes_complete_Test8TestBodyEv
FNDA:1,_ZN52pump_state_test_infusing_complete_goes_complete_TestC2Ev
FNDA:1,_ZN52pump_state_test_infusing_complete_goes_complete_TestD0Ev
FNDA:1,_ZN52pump_state_test_infusing_complete_goes_complete_TestD2Ev
FNDA:1,_ZN48pump_state_test_pausing_start_goes_infusing_Test8TestBodyEv
FNDA:1,_ZN48pump_state_test_pausing_start_goes_infusing_TestC2Ev
FNDA:1,_ZN48pump_state_test_pausing_start_goes_infusing_TestD0Ev
FNDA:1,_ZN48pump_state_test_pausing_start_goes_infusing_TestD2Ev
FNDA:1,_ZN43pump_state_test_pausing_stop_goes_idle_Test8TestBodyEv
FNDA:1,_ZN43pump_state_test_pausing_stop_goes_idle_TestC2Ev
FNDA:1,_ZN43pump_state_test_pausing_stop_goes_idle_TestD0Ev
FNDA:1,_ZN43pump_state_test_pausing_stop_goes_idle_TestD2Ev
FNDA:1,_ZN42pump_state_test_pausing_pause_ignored_Test8TestBodyEv
FNDA:1,_ZN42pump_state_test_pausing_pause_ignored_TestC2Ev
FNDA:1,_ZN42pump_state_test_pausing_pause_ignored_TestD0Ev
FNDA:1,_ZN42pump_state_test_pausing_pause_ignored_TestD2Ev
FNDA:1,_ZN46pump_state_test_pausing_occlusion_ignored_Test8TestBodyEv
FNDA:1,_ZN46pump_state_test_pausing_occlusion_ignored_TestC2Ev
FNDA:1,_ZN46pump_state_test_pausing_occlusion_ignored_TestD0Ev
FNDA:1,_ZN46pump_state_test_pausing_occlusion_ignored_TestD2Ev
FNDA:1,_ZN45pump_state_test_pausing_complete_ignored_Test8TestBodyEv
FNDA:1,_ZN45pump_state_test_pausing_complete_ignored_TestC2Ev
FNDA:1,_ZN45pump_state_test_pausing_complete_ignored_TestD0Ev
FNDA:1,_ZN45pump_state_test_pausing_complete_ignored_TestD2Ev
FNDA:1,_ZN45pump_state_test_occlusion_stop_goes_idle_Test8TestBodyEv
FNDA:1,_ZN45pump_state_test_occlusion_stop_goes_idle_TestC2Ev
FNDA:1,_ZN45pump_state_test_occlusion_stop_goes_idle_TestD0Ev
FNDA:1,_ZN45pump_state_test_occlusion_stop_goes_idle_TestD2Ev
FNDA:1,_ZN44pump_state_test_occlusion_start_ignored_Test8TestBodyEv
FNDA:1,_ZN44pump_state_test_occlusion_start_ignored_TestC2Ev
FNDA:1,_ZN44pump_state_test_occlusion_start_ignored_TestD0Ev
FNDA:1,_ZN44pump_state_test_occlusion_start_ignored_TestD2Ev
FNDA:1,_ZN44pump_state_test_occlusion_pause_ignored_Test8TestBodyEv
FNDA:1,_ZN44pump_state_test_occlusion_pause_ignored_TestC2Ev
FNDA:1,_ZN44pump_state_test_occlusion_pause_ignored_TestD0Ev
FNDA:1,_ZN44pump_state_test_occlusion_pause_ignored_TestD2Ev
FNDA:1,_ZN48pump_state_test_occlusion_occlusion_ignored_Test8TestBodyEv
FNDA:1,_ZN48pump_state_test_occlusion_occlusion_ignored_TestC2Ev
FNDA:1,_ZN48pump_state_test_occlusion_occlusion_ignored_TestD0Ev
FNDA:1,_ZN48pump_state_test_occlusion_occlusion_ignored_TestD2Ev
FNDA:1,_ZN47pump_state_test_occlusion_complete_ignored_Test8TestBodyEv
FNDA:1,_ZN47pump_state_test_occlusion_complete_ignored_TestC2Ev
FNDA:1,_ZN47pump_state_test_occlusion_complete_ignored_TestD0Ev
FNDA:1,_ZN47pump_state_test_occlusion_complete_ignored_TestD2Ev
FNDA:1,_ZN48pump_state_test_complete_start_goes_priming_Test8TestBodyEv
FNDA:1,_ZN48pump_state_test_complete_start_goes_priming_TestC2Ev
FNDA:1,_ZN48pump_state_test_complete_start_goes_priming_TestD0Ev
FNDA:1,_ZN48pump_state_test_complete_start_goes_priming_TestD2Ev
FNDA:1,_ZN42pump_state_test_complete_stop_ignored_Test8TestBodyEv
FNDA:1,_ZN42pump_state_test_complete_stop_ignored_TestC2Ev
FNDA:1,_ZN42pump_state_test_complete_stop_ignored_TestD0Ev
FNDA:1,_ZN42pump_state_test_complete_stop_ignored_TestD2Ev
FNDA:1,_ZN43pump_state_test_complete_pause_ignored_Test8TestBodyEv
FNDA:1,_ZN43pump_state_test_complete_pause_ignored_TestC2Ev
FNDA:1,_ZN43pump_state_test_complete_pause_ignored_TestD0Ev
FNDA:1,_ZN43pump_state_test_complete_pause_ignored_TestD2Ev
FNDA:1,_ZN47pump_state_test_complete_occlusion_ignored_Test8TestBodyEv
FNDA:1,_ZN47pump_state_test_complete_occlusion_ignored_TestC2Ev
FNDA:1,_ZN47pump_state_test_complete_occlusion_ignored_TestD0Ev
FNDA:1,_ZN47pump_state_test_complete_occlusion_ignored_TestD2Ev
FNDA:1,_ZN46pump_state_test_complete_complete_ignored_Test8TestBodyEv
FNDA:1,_ZN46pump_state_test_complete_complete_ignored_TestC2Ev
FNDA:1,_ZN46pump_state_test_complete_complete_ignored_TestD0Ev
FNDA:1,_ZN46pump_state_test_complete_complete_ignored_TestD2Ev
FNDA:1,_ZN45pump_state_test_setrate_sets_motor_delay_Test8TestBodyEv
FNDA:1,_ZN45pump_state_test_setrate_sets_motor_delay_TestC2Ev
FNDA:1,_ZN45pump_state_test_setrate_sets_motor_delay_TestD0Ev
FNDA:1,_ZN45pump_state_test_setrate_sets_motor_delay_TestD2Ev
FNDA:1,main
FNF:129
FNH:129
DA:11,4
DA:12,1
DA:13,1
DA:16,4
DA:17,4
DA:18,4
DA:19,4
DA:20,4
DA:23,4
DA:24,4
DA:25,4
DA:26,4
DA:27,4
DA:30,4
DA:31,4
DA:32,4
DA:33,4
DA:34,4
DA:37,4
DA:38,4
DA:39,4
DA:40,4
DA:41,4
DA:44,4
DA:45,4
DA:46,4
DA:47,4
DA:48,4
DA:51,4
DA:52,4
DA:53,4
DA:54,4
DA:55,4
DA:58,4
DA:59,1
DA:60,1
DA:61,1
DA:63,1
DA:64,1
DA:65,1
LF:40
LH:40
end_of_record
TN:
SF:/home/thanga-inc-5829/Documents/Syringr_project/tests/test_volume.cpp
FN:14,14,_ZN42volume_test_volume_one_rev_equals_2ml_Test8TestBodyEv
FN:14,14,_ZN42volume_test_volume_one_rev_equals_2ml_TestC2Ev
FN:14,14,_ZN42volume_test_volume_one_rev_equals_2ml_TestD0Ev
FN:14,14,_ZN42volume_test_volume_one_rev_equals_2ml_TestD2Ev
FN:19,19,_ZN43volume_test_volume_half_rev_equals_1ml_Test8TestBodyEv
FN:19,19,_ZN43volume_test_volume_half_rev_equals_1ml_TestC2Ev
FN:19,19,_ZN43volume_test_volume_half_rev_equals_1ml_TestD0Ev
FN:19,19,_ZN43volume_test_volume_half_rev_equals_1ml_TestD2Ev
FN:24,24,_ZN36volume_test_volume_reset_clears_Test8TestBodyEv
FN:24,24,_ZN36volume_test_volume_reset_clears_TestC2Ev
FN:24,24,_ZN36volume_test_volume_reset_clears_TestD0Ev
FN:24,24,_ZN36volume_test_volume_reset_clears_TestD2Ev
FN:29,32,main
FN:9,9,_ZN34volume_test_volume_zero_steps_Test8TestBodyEv
FN:9,9,_ZN34volume_test_volume_zero_steps_TestC2Ev
FN:9,9,_ZN34volume_test_volume_zero_steps_TestD0Ev
FN:9,9,_ZN34volume_test_volume_zero_steps_TestD2Ev
FNDA:1,_ZN42volume_test_volume_one_rev_equals_2ml_Test8TestBodyEv
FNDA:1,_ZN42volume_test_volume_one_rev_equals_2ml_TestC2Ev
FNDA:1,_ZN42volume_test_volume_one_rev_equals_2ml_TestD0Ev
FNDA:1,_ZN42volume_test_volume_one_rev_equals_2ml_TestD2Ev
FNDA:1,_ZN43volume_test_volume_half_rev_equals_1ml_Test8TestBodyEv
FNDA:1,_ZN43volume_test_volume_half_rev_equals_1ml_TestC2Ev
FNDA:1,_ZN43volume_test_volume_half_rev_equals_1ml_TestD0Ev
FNDA:1,_ZN43volume_test_volume_half_rev_equals_1ml_TestD2Ev
FNDA:1,_ZN36volume_test_volume_reset_clears_Test8TestBodyEv
FNDA:1,_ZN36volume_test_volume_reset_clears_TestC2Ev
FNDA:1,_ZN36volume_test_volume_reset_clears_TestD0Ev
FNDA:1,_ZN36volume_test_volume_reset_clears_TestD2Ev
FNDA:1,main
FNDA:1,_ZN34volume_test_volume_zero_steps_Test8TestBodyEv
FNDA:1,_ZN34volume_test_volume_zero_steps_TestC2Ev
FNDA:1,_ZN34volume_test_volume_zero_steps_TestD0Ev
FNDA:1,_ZN34volume_test_volume_zero_steps_TestD2Ev
FNF:17
FNH:17
DA:9,4
DA:10,1
DA:11,1
DA:12,1
DA:14,4
DA:15,1
DA:16,1
DA:17,1
DA:19,4
DA:20,1
DA:21,1
DA:22,1
DA:24,4
DA:25,1
DA:26,1
DA:27,1
DA:28,1
DA:29,1
DA:30,1
DA:31,1
LF:20
LH:20
end_of_record
