TN:
SF:/home/thanga-inc-5829/Documents/Syringr_project/include/Hal/i_stepper_driver.hpp
FNF:0
FNH:0
LF:0
LH:0
end_of_record
TN:
SF:/home/thanga-inc-5829/Documents/Syringr_project/include/alarm_manager.hpp
FNF:0
FNH:0
LF:0
LH:0
end_of_record
TN:
SF:/home/thanga-inc-5829/Documents/Syringr_project/include/command_parser.hpp
FN:8,8,_ZN13commandparserC2EP16PumpStateMachine
FNDA:5,_ZN13commandparserC2EP16PumpStateMachine
FNF:1
FNH:1
DA:8,5
LF:1
LH:1
end_of_record
TN:
SF:/home/thanga-inc-5829/Documents/Syringr_project/include/i_pump_state.hpp
FN:7,9,_ZN9pumpState10setcontextEP16PumpStateMachine
FNDA:155,_ZN9pumpState10setcontextEP16PumpStateMachine
FNF:1
FNH:1
DA:7,155
DA:8,155
DA:9,155
LF:3
LH:3
end_of_record
TN:
SF:/home/thanga-inc-5829/Documents/Syringr_project/include/pump_state_machine.hpp
FN:19,22,_ZN16PumpStateMachineC2ER12AlarmManager
FNDA:48,_ZN16PumpStateMachineC2ER12AlarmManager
FNF:1
FNH:1
DA:19,48
DA:20,48
DA:21,48
DA:22,48
LF:4
LH:4
end_of_record
TN:
SF:/home/thanga-inc-5829/Documents/Syringr_project/include/volume_tracker.hpp
FNF:0
FNH:0
LF:0
LH:0
end_of_record
TN:
SF:/home/thanga-inc-5829/Documents/Syringr_project/src/alarm_manager.cpp
FN:3,6,_ZN12AlarmManager3addEP13Alarmobserver
FN:7,12,_ZN12AlarmManager6notifyEv
FNDA:20,_ZN12AlarmManager3addEP13Alarmobserver
FNDA:25,_ZN12AlarmManager6notifyEv
FNF:2
FNH:2
DA:3,20
DA:4,20
DA:5,20
DA:6,20
DA:7,25
DA:8,49
DA:9,24
DA:11,25
DA:12,25
LF:9
LH:9
end_of_record
TN:
SF:/home/thanga-inc-5829/Documents/Syringr_project/src/command_parser.cpp
FN:2,15,_ZN13commandparser5parseEPKc
FNDA:5,_ZN13commandparser5parseEPKc
FNF:1
FNH:1
DA:2,5
DA:3,5
DA:4,1
DA:6,4
DA:7,1
DA:9,3
DA:10,1
DA:12,2
DA:13,1
DA:15,5
LF:10
LH:10
end_of_record
TN:
SF:/home/thanga-inc-5829/Documents/Syringr_project/src/pump_state_machine.cpp
FN:11,13,_ZN16PumpStateMachine5pauseEv
FN:14,16,_ZN16PumpStateMachine9occlusionEv
FN:17,19,_ZN16PumpStateMachine5startEv
FN:20,22,_ZN16PumpStateMachine8completeEv
FN:23,25,_ZN16PumpStateMachine7setrateEf
FN:3,7,_ZN16PumpStateMachine8setstateEP9pumpState
FN:8,10,_ZN16PumpStateMachine4stopEv
FNDA:15,_ZN16PumpStateMachine5pauseEv
FNDA:13,_ZN16PumpStateMachine9occlusionEv
FNDA:75,_ZN16PumpStateMachine5startEv
FNDA:13,_ZN16PumpStateMachine8completeEv
FNDA:3,_ZN16PumpStateMachine7setrateEf
FNDA:107,_ZN16PumpStateMachine8setstateEP9pumpState
FNDA:9,_ZN16PumpStateMachine4stopEv
FNF:7
FNH:7
DA:3,107
DA:4,107
DA:5,107
DA:6,107
DA:7,107
DA:8,9
DA:9,9
DA:10,9
DA:11,15
DA:12,15
DA:13,15
DA:14,13
DA:15,13
DA:16,13
DA:17,75
DA:18,75
DA:19,75
DA:20,13
DA:21,13
DA:22,13
DA:23,3
DA:24,3
DA:25,3
LF:23
LH:23
end_of_record
TN:
SF:/home/thanga-inc-5829/Documents/Syringr_project/src/states/state_complete.cpp
FN:10,10,_ZN13completeState5startEv
FN:11,11,_ZN13completeState4stopEv
FN:12,12,_ZN13completeState5pauseEv
FN:13,13,_ZN13completeState9occlusionEv
FN:14,14,_ZN13completeState8completeEv
FN:9,9,_ZN13completeState7onenterEv
FNDA:2,_ZN13completeState5startEv
FNDA:1,_ZN13completeState4stopEv
FNDA:1,_ZN13completeState5pauseEv
FNDA:1,_ZN13completeState9occlusionEv
FNDA:1,_ZN13completeState8completeEv
FNDA:8,_ZN13completeState7onenterEv
FNF:6
FNH:6
DA:9,8
DA:10,2
DA:11,1
DA:12,1
DA:13,1
DA:14,1
LF:6
LH:6
end_of_record
TN:
SF:/home/thanga-inc-5829/Documents/Syringr_project/src/states/state_idle.cpp
FN:10,10,_ZN9idleState5startEv
FN:11,11,_ZN9idleState4stopEv
FN:12,12,_ZN9idleState5pauseEv
FN:13,13,_ZN9idleState9occlusionEv
FN:14,14,_ZN9idleState8completeEv
FN:9,9,_ZN9idleState7onenterEv
FNDA:38,_ZN9idleState5startEv
FNDA:1,_ZN9idleState4stopEv
FNDA:1,_ZN9idleState5pauseEv
FNDA:1,_ZN9idleState9occlusionEv
FNDA:1,_ZN9idleState8completeEv
FNDA:7,_ZN9idleState7onenterEv
FNF:6
FNH:6
DA:9,7
DA:10,38
DA:11,1
DA:12,1
DA:13,1
DA:14,1
LF:6
LH:6
end_of_record
TN:
SF:/home/thanga-inc-5829/Documents/Syringr_project/src/states/state_infusing.cpp
FN:10,10,_ZN13infusingState7onenterEv
FN:11,11,_ZN13infusingState5startEv
FN:12,12,_ZN13infusingState4stopEv
FN:13,13,_ZN13infusingState5pauseEv
FN:14,14,_ZN13infusingState9occlusionEv
FN:15,15,_ZN13infusingState8completeEv
FNDA:33,_ZN13infusingState7onenterEv
FNDA:1,_ZN13infusingState5startEv
FNDA:2,_ZN13infusingState4stopEv
FNDA:10,_ZN13infusingState5pauseEv
FNDA:8,_ZN13infusingState9occlusionEv
FNDA:8,_ZN13infusingState8completeEv
FNF:6
FNH:6
DA:10,33
DA:11,1
DA:12,2
DA:13,10
DA:14,8
DA:15,8
LF:6
LH:6
end_of_record
TN:
SF:/home/thanga-inc-5829/Documents/Syringr_project/src/states/state_occlusion_alarm.cpp
FN:10,10,_ZN14occlusionState5startEv
FN:11,11,_ZN14occlusionState4stopEv
FN:12,12,_ZN14occlusionState5pauseEv
FN:13,13,_ZN14occlusionState9occlusionEv
FN:14,14,_ZN14occlusionState8completeEv
FN:9,9,_ZN14occlusionState7onenterEv
FNDA:1,_ZN14occlusionState5startEv
FNDA:2,_ZN14occlusionState4stopEv
FNDA:1,_ZN14occlusionState5pauseEv
FNDA:1,_ZN14occlusionState9occlusionEv
FNDA:1,_ZN14occlusionState8completeEv
FNDA:9,_ZN14occlusionState7onenterEv
FNF:6
FNH:6
DA:9,9
DA:10,1
DA:11,2
DA:12,1
DA:13,1
DA:14,1
LF:6
LH:6
end_of_record
TN:
SF:/home/thanga-inc-5829/Documents/Syringr_project/src/states/state_paused.cpp
FN:10,10,_ZN12pausingState5startEv
FN:11,11,_ZN12pausingState4stopEv
FN:12,12,_ZN12pausingState5pauseEv
FN:13,13,_ZN12pausingState9occlusionEv
FN:14,14,_ZN12pausingState8completeEv
FN:9,9,_ZN12pausingState7onenterEv
FNDA:2,_ZN12pausingState5startEv
FNDA:2,_ZN12pausingState4stopEv
FNDA:1,_ZN12pausingState5pauseEv
FNDA:1,_ZN12pausingState9occlusionEv
FNDA:1,_ZN12pausingState8completeEv
FNDA:10,_ZN12pausingState7onenterEv
FNF:6
FNH:6
DA:9,10
DA:10,2
DA:11,2
DA:12,1
DA:13,1
DA:14,1
LF:6
LH:6
end_of_record
TN:
SF:/home/thanga-inc-5829/Documents/Syringr_project/src/states/state_priming.cpp
FN:10,10,_ZN12primingState5startEv
FN:11,11,_ZN12primingState4stopEv
FN:12,12,_ZN12primingState5pauseEv
FN:13,13,_ZN12primingState9occlusionEv
FN:14,14,_ZN12primingState8completeEv
FN:9,9,_ZN12primingState7onenterEv
FNDA:31,_ZN12primingState5startEv
FNDA:1,_ZN12primingState4stopEv
FNDA:1,_ZN12primingState5pauseEv
FNDA:1,_ZN12primingState9occlusionEv
FNDA:1,_ZN12primingState8completeEv
FNDA:40,_ZN12primingState7onenterEv
FNF:6
FNH:6
DA:9,40
DA:10,31
DA:11,1
DA:12,1
DA:13,1
DA:14,1
LF:6
LH:6
end_of_record
TN:
SF:/home/thanga-inc-5829/Documents/Syringr_project/src/volume_tracker.cpp
FN:2,4,_ZN13Volumetracker6updateEj
FN:5,7,_ZN13Volumetracker6getvolEv
FN:8,10,_ZN13Volumetracker5resetEv
FNDA:4,_ZN13Volumetracker6updateEj
FNDA:4,_ZN13Volumetracker6getvolEv
FNDA:1,_ZN13Volumetracker5resetEv
FNF:3
FNH:3
DA:2,4
DA:3,4
DA:4,4
DA:5,4
DA:6,4
DA:8,1
DA:9,1
DA:10,1
LF:8
LH:8
end_of_record
TN:
SF:/home/thanga-inc-5829/Documents/Syringr_project/tests/stubs/stub_file.cpp
FN:10,12,_ZN11MotorDriver5startEv
FN:13,15,_ZN11MotorDriver4stopEv
FN:16,18,_ZN11MotorDriver5resetEv
FN:19,21,_ZN11MotorDriver8getstepsEv
FN:22,24,_ZN11MotorDriver7SetrateEf
FN:4,4,_ZN3led6updateEv
FN:6,6,_ZN6buzzer6updateEv
FN:8,8,_ZN13uart_observer6updateEv
FNDA:73,_ZN11MotorDriver5startEv
FNDA:28,_ZN11MotorDriver4stopEv
FNDA:0,_ZN11MotorDriver5resetEv
FNDA:0,_ZN11MotorDriver8getstepsEv
FNDA:3,_ZN11MotorDriver7SetrateEf
FNDA:16,_ZN3led6updateEv
FNDA:4,_ZN6buzzer6updateEv
FNDA:4,_ZN13uart_observer6updateEv
FNF:8
FNH:6
DA:4,16
DA:6,4
DA:8,4
DA:10,73
DA:11,73
DA:12,73
DA:13,28
DA:14,28
DA:15,28
DA:16,0
DA:17,0
DA:18,0
DA:19,0
DA:20,0
DA:22,3
DA:23,3
DA:24,3
LF:17
LH:12
end_of_record
TN:
SF:/home/thanga-inc-5829/Documents/Syringr_project/tests/test_alarm.cpp
FN:15,15,_ZN34pumptest_alarm_add_two_notify_Test8TestBodyEv
FN:15,15,_ZN34pumptest_alarm_add_two_notify_TestC2Ev
FN:15,15,_ZN34pumptest_alarm_add_two_notify_TestD0Ev
FN:15,15,_ZN34pumptest_alarm_add_two_notify_TestD2Ev
FN:27,27,_ZN32pumptest_alarm_notify_twice_Test8TestBodyEv
FN:27,27,_ZN32pumptest_alarm_notify_twice_TestC2Ev
FN:27,27,_ZN32pumptest_alarm_notify_twice_TestD0Ev
FN:27,27,_ZN32pumptest_alarm_notify_twice_TestD2Ev
FN:34,37,main
FN:8,8,_ZN34pumptest_alarm_add_one_notify_Test8TestBodyEv
FN:8,8,_ZN34pumptest_alarm_add_one_notify_TestC2Ev
FN:8,8,_ZN34pumptest_alarm_add_one_notify_TestD0Ev
FN:8,8,_ZN34pumptest_alarm_add_one_notify_TestD2Ev
FNDA:4,_ZN34pumptest_alarm_add_two_notify_Test8TestBodyEv
FNDA:4,_ZN34pumptest_alarm_add_two_notify_TestC2Ev
FNDA:4,_ZN34pumptest_alarm_add_two_notify_TestD0Ev
FNDA:4,_ZN34pumptest_alarm_add_two_notify_TestD2Ev
FNDA:4,_ZN32pumptest_alarm_notify_twice_Test8TestBodyEv
FNDA:4,_ZN32pumptest_alarm_notify_twice_TestC2Ev
FNDA:4,_ZN32pumptest_alarm_notify_twice_TestD0Ev
FNDA:4,_ZN32pumptest_alarm_notify_twice_TestD2Ev
FNDA:4,main
FNDA:4,_ZN34pumptest_alarm_add_one_notify_Test8TestBodyEv
FNDA:4,_ZN34pumptest_alarm_add_one_notify_TestC2Ev
FNDA:4,_ZN34pumptest_alarm_add_one_notify_TestD0Ev
FNDA:4,_ZN34pumptest_alarm_add_one_notify_TestD2Ev
FNF:13
FNH:13
DA:8,16
DA:9,4
DA:10,4
DA:11,4
DA:12,4
DA:13,4
DA:15,16
DA:16,4
DA:17,4
DA:18,4
DA:19,4
DA:20,4
DA:21,4
DA:22,4
DA:23,4
DA:24,4
DA:25,4
DA:27,16
DA:28,4
DA:29,4
DA:30,4
DA:31,4
DA:32,4
DA:33,4
DA:34,4
DA:35,4
DA:36,4
LF:27
LH:27
end_of_record
TN:
SF:/home/thanga-inc-5829/Documents/Syringr_project/tests/test_command.cpp
FN:13,13,_ZN31command_test_command_start_Test8TestBodyEv
FN:13,13,_ZN31command_test_command_start_TestC2Ev
FN:13,13,_ZN31command_test_command_start_TestD0Ev
FN:13,13,_ZN31command_test_command_start_TestD2Ev
FN:18,18,_ZN30command_test_command_stop_Test8TestBodyEv
FN:18,18,_ZN30command_test_command_stop_TestC2Ev
FN:18,18,_ZN30command_test_command_stop_TestD0Ev
FN:18,18,_ZN30command_test_command_stop_TestD2Ev
FN:25,25,_ZN31command_test_command_pause_Test8TestBodyEv
FN:25,25,_ZN31command_test_command_pause_TestC2Ev
FN:25,25,_ZN31command_test_command_pause_TestD0Ev
FN:25,25,_ZN31command_test_command_pause_TestD2Ev
FN:32,32,_ZN33command_test_command_setrate_Test8TestBodyEv
FN:32,32,_ZN33command_test_command_setrate_TestC2Ev
FN:32,32,_ZN33command_test_command_setrate_TestD0Ev
FN:32,32,_ZN33command_test_command_setrate_TestD2Ev
FN:37,37,_ZN49command_test_command_unknown_no_state_change_Test8TestBodyEv
FN:37,37,_ZN49command_test_command_unknown_no_state_change_TestC2Ev
FN:37,37,_ZN49command_test_command_unknown_no_state_change_TestD0Ev
FN:37,37,_ZN49command_test_command_unknown_no_state_change_TestD2Ev
FN:42,45,main
FNDA:1,_ZN31command_test_command_start_Test8TestBodyEv
FNDA:1,_ZN31command_test_command_start_TestC2Ev
FNDA:1,_ZN31command_test_command_start_TestD0Ev
FNDA:1,_ZN31command_test_command_start_TestD2Ev
FNDA:1,_ZN30command_test_command_stop_Test8TestBodyEv
FNDA:1,_ZN30command_test_command_stop_TestC2Ev
FNDA:1,_ZN30command_test_command_stop_TestD0Ev
FNDA:1,_ZN30command_test_command_stop_TestD2Ev
FNDA:1,_ZN31command_test_command_pause_Test8TestBodyEv
FNDA:1,_ZN31command_test_command_pause_TestC2Ev
FNDA:1,_ZN31command_test_command_pause_TestD0Ev
FNDA:1,_ZN31command_test_command_pause_TestD2Ev
FNDA:1,_ZN33command_test_command_setrate_Test8TestBodyEv
FNDA:1,_ZN33command_test_command_setrate_TestC2Ev
FNDA:1,_ZN33command_test_command_setrate_TestD0Ev
FNDA:1,_ZN33command_test_command_setrate_TestD2Ev
FNDA:1,_ZN49command_test_command_unknown_no_state_change_Test8TestBodyEv
FNDA:1,_ZN49command_test_command_unknown_no_state_change_TestC2Ev
FNDA:1,_ZN49command_test_command_unknown_no_state_change_TestD0Ev
FNDA:1,_ZN49command_test_command_unknown_no_state_change_TestD2Ev
FNDA:1,main
FNF:21
FNH:21
DA:13,4
DA:14,1
DA:15,1
DA:16,1
DA:18,4
DA:19,1
DA:20,1
DA:21,1
DA:22,1
DA:23,1
DA:25,4
DA:26,1
DA:27,1
DA:28,1
DA:29,1
DA:30,1
DA:32,4
DA:33,1
DA:34,1
DA:35,1
DA:37,4
DA:38,1
DA:39,1
DA:40,1
DA:42,1
DA:43,1
DA:44,1
LF:27
LH:27
end_of_record
TN:
SF:/home/thanga-inc-5829/Documents/Syringr_project/tests/test_pump_state_machine.cpp
FN:10,10,_ZN49pump_state_machine_test_initialstate_as_idle_Test8TestBodyEv
FN:10,10,_ZN49pump_state_machine_test_initialstate_as_idle_TestC2Ev
FN:10,10,_ZN49pump_state_machine_test_initialstate_as_idle_TestD0Ev
FN:10,10,_ZN49pump_state_machine_test_initialstate_as_idle_TestD2Ev
FN:13,13,_ZN50pump_state_machine_test_start_goes_to_priming_Test8TestBodyEv
FN:13,13,_ZN50pump_state_machine_test_start_goes_to_priming_TestC2Ev
FN:13,13,_ZN50pump_state_machine_test_start_goes_to_priming_TestD0Ev
FN:13,13,_ZN50pump_state_machine_test_start_goes_to_priming_TestD2Ev
FN:18,18,_ZN59pump_state_machine_test_priming_start_goes_to_infusing_Test8TestBodyEv
FN:18,18,_ZN59pump_state_machine_test_priming_start_goes_to_infusing_TestC2Ev
FN:18,18,_ZN59pump_state_machine_test_priming_start_goes_to_infusing_TestD0Ev
FN:18,18,_ZN59pump_state_machine_test_priming_start_goes_to_infusing_TestD2Ev
FN:24,24,_ZN59pump_state_machine_test_infusing_pause_goes_to_pausing_Test8TestBodyEv
FN:24,24,_ZN59pump_state_machine_test_infusing_pause_goes_to_pausing_TestC2Ev
FN:24,24,_ZN59pump_state_machine_test_infusing_pause_goes_to_pausing_TestD0Ev
FN:24,24,_ZN59pump_state_machine_test_infusing_pause_goes_to_pausing_TestD2Ev
FN:31,31,_ZN65pump_state_machine_test_infusing_occlusion_goes_to_occlusion_Test8TestBodyEv
FN:31,31,_ZN65pump_state_machine_test_infusing_occlusion_goes_to_occlusion_TestC2Ev
FN:31,31,_ZN65pump_state_machine_test_infusing_occlusion_goes_to_occlusion_TestD0Ev
FN:31,31,_ZN65pump_state_machine_test_infusing_occlusion_goes_to_occlusion_TestD2Ev
FN:38,38,_ZN63pump_state_machine_test_infusing_complete_goes_to_complete_Test8TestBodyEv
FN:38,38,_ZN63pump_state_machine_test_infusing_complete_goes_to_complete_TestC2Ev
FN:38,38,_ZN63pump_state_machine_test_infusing_complete_goes_to_complete_TestD0Ev
FN:38,38,_ZN63pump_state_machine_test_infusing_complete_goes_to_complete_TestD2Ev
FN:45,45,_ZN59pump_state_machine_test_pausing_start_goes_to_infusing_Test8TestBodyEv
FN:45,45,_ZN59pump_state_machine_test_pausing_start_goes_to_infusing_TestC2Ev
FN:45,45,_ZN59pump_state_machine_test_pausing_start_goes_to_infusing_TestD0Ev
FN:45,45,_ZN59pump_state_machine_test_pausing_start_goes_to_infusing_TestD2Ev
FN:53,53,_ZN54pump_state_machine_test_pausing_stop_goes_to_idle_Test8TestBodyEv
FN:53,53,_ZN54pump_state_machine_test_pausing_stop_goes_to_idle_TestC2Ev
FN:53,53,_ZN54pump_state_machine_test_pausing_stop_goes_to_idle_TestD0Ev
FN:53,53,_ZN54pump_state_machine_test_pausing_stop_goes_to_idle_TestD2Ev
FN:61,67,_ZN56pump_state_machine_test_occlusion_stop_goes_to_idle_Test8TestBodyEv
FN:61,67,_ZN56pump_state_machine_test_occlusion_stop_goes_to_idle_TestC2Ev
FN:61,67,_ZN56pump_state_machine_test_occlusion_stop_goes_to_idle_TestD0Ev
FN:61,67,_ZN56pump_state_machine_test_occlusion_stop_goes_to_idle_TestD2Ev
FN:69,69,_ZN59pump_state_machine_test_complete_start_goes_to_priming_Test8TestBodyEv
FN:69,69,_ZN59pump_state_machine_test_complete_start_goes_to_priming_TestC2Ev
FN:69,69,_ZN59pump_state_machine_test_complete_start_goes_to_priming_TestD0Ev
FN:69,69,_ZN59pump_state_machine_test_complete_start_goes_to_priming_TestD2Ev
FN:77,77,_ZN53pump_state_machine_test_setrate_sets_motor_delay_Test8TestBodyEv
FN:77,77,_ZN53pump_state_machine_test_setrate_sets_motor_delay_TestC2Ev
FN:77,77,_ZN53pump_state_machine_test_setrate_sets_motor_delay_TestD0Ev
FN:77,77,_ZN53pump_state_machine_test_setrate_sets_motor_delay_TestD2Ev
FN:82,85,main
FNDA:1,_ZN49pump_state_machine_test_initialstate_as_idle_Test8TestBodyEv
FNDA:1,_ZN49pump_state_machine_test_initialstate_as_idle_TestC2Ev
FNDA:1,_ZN49pump_state_machine_test_initialstate_as_idle_TestD0Ev
FNDA:1,_ZN49pump_state_machine_test_initialstate_as_idle_TestD2Ev
FNDA:1,_ZN50pump_state_machine_test_start_goes_to_priming_Test8TestBodyEv
FNDA:1,_ZN50pump_state_machine_test_start_goes_to_priming_TestC2Ev
FNDA:1,_ZN50pump_state_machine_test_start_goes_to_priming_TestD0Ev
FNDA:1,_ZN50pump_state_machine_test_start_goes_to_priming_TestD2Ev
FNDA:1,_ZN59pump_state_machine_test_priming_start_goes_to_infusing_Test8TestBodyEv
FNDA:1,_ZN59pump_state_machine_test_priming_start_goes_to_infusing_TestC2Ev
FNDA:1,_ZN59pump_state_machine_test_priming_start_goes_to_infusing_TestD0Ev
FNDA:1,_ZN59pump_state_machine_test_priming_start_goes_to_infusing_TestD2Ev
FNDA:1,_ZN59pump_state_machine_test_infusing_pause_goes_to_pausing_Test8TestBodyEv
FNDA:1,_ZN59pump_state_machine_test_infusing_pause_goes_to_pausing_TestC2Ev
FNDA:1,_ZN59pump_state_machine_test_infusing_pause_goes_to_pausing_TestD0Ev
FNDA:1,_ZN59pump_state_machine_test_infusing_pause_goes_to_pausing_TestD2Ev
FNDA:1,_ZN65pump_state_machine_test_infusing_occlusion_goes_to_occlusion_Test8TestBodyEv
FNDA:1,_ZN65pump_state_machine_test_infusing_occlusion_goes_to_occlusion_TestC2Ev
FNDA:1,_ZN65pump_state_machine_test_infusing_occlusion_goes_to_occlusion_TestD0Ev
FNDA:1,_ZN65pump_state_machine_test_infusing_occlusion_goes_to_occlusion_TestD2Ev
FNDA:1,_ZN63pump_state_machine_test_infusing_complete_goes_to_complete_Test8TestBodyEv
FNDA:1,_ZN63pump_state_machine_test_infusing_complete_goes_to_complete_TestC2Ev
FNDA:1,_ZN63pump_state_machine_test_infusing_complete_goes_to_complete_TestD0Ev
FNDA:1,_ZN63pump_state_machine_test_infusing_complete_goes_to_complete_TestD2Ev
FNDA:1,_ZN59pump_state_machine_test_pausing_start_goes_to_infusing_Test8TestBodyEv
FNDA:1,_ZN59pump_state_machine_test_pausing_start_goes_to_infusing_TestC2Ev
FNDA:1,_ZN59pump_state_machine_test_pausing_start_goes_to_infusing_TestD0Ev
FNDA:1,_ZN59pump_state_machine_test_pausing_start_goes_to_infusing_TestD2Ev
FNDA:1,_ZN54pump_state_machine_test_pausing_stop_goes_to_idle_Test8TestBodyEv
FNDA:1,_ZN54pump_state_machine_test_pausing_stop_goes_to_idle_TestC2Ev
FNDA:1,_ZN54pump_state_machine_test_pausing_stop_goes_to_idle_TestD0Ev
FNDA:1,_ZN54pump_state_machine_test_pausing_stop_goes_to_idle_TestD2Ev
FNDA:1,_ZN56pump_state_machine_test_occlusion_stop_goes_to_idle_Test8TestBodyEv
FNDA:1,_ZN56pump_state_machine_test_occlusion_stop_goes_to_idle_TestC2Ev
FNDA:1,_ZN56pump_state_machine_test_occlusion_stop_goes_to_idle_TestD0Ev
FNDA:1,_ZN56pump_state_machine_test_occlusion_stop_goes_to_idle_TestD2Ev
FNDA:1,_ZN59pump_state_machine_test_complete_start_goes_to_priming_Test8TestBodyEv
FNDA:1,_ZN59pump_state_machine_test_complete_start_goes_to_priming_TestC2Ev
FNDA:1,_ZN59pump_state_machine_test_complete_start_goes_to_priming_TestD0Ev
FNDA:1,_ZN59pump_state_machine_test_complete_start_goes_to_priming_TestD2Ev
FNDA:1,_ZN53pump_state_machine_test_setrate_sets_motor_delay_Test8TestBodyEv
FNDA:1,_ZN53pump_state_machine_test_setrate_sets_motor_delay_TestC2Ev
FNDA:1,_ZN53pump_state_machine_test_setrate_sets_motor_delay_TestD0Ev
FNDA:1,_ZN53pump_state_machine_test_setrate_sets_motor_delay_TestD2Ev
FNDA:1,main
FNF:45
FNH:45
DA:10,4
DA:11,1
DA:12,1
DA:13,4
DA:14,1
DA:15,1
DA:16,1
DA:18,4
DA:19,1
DA:20,1
DA:21,1
DA:22,1
DA:24,4
DA:25,1
DA:26,1
DA:27,1
DA:28,1
DA:29,1
DA:31,4
DA:32,1
DA:33,1
DA:34,1
DA:35,1
DA:36,1
DA:38,4
DA:39,1
DA:40,1
DA:41,1
DA:42,1
DA:43,1
DA:45,4
DA:46,1
DA:47,1
DA:48,1
DA:49,1
DA:50,1
DA:51,1
DA:53,4
DA:54,1
DA:55,1
DA:56,1
DA:57,1
DA:58,1
DA:59,1
DA:61,4
DA:62,1
DA:63,1
DA:64,1
DA:65,1
DA:66,1
DA:67,1
DA:69,4
DA:70,1
DA:71,1
DA:72,1
DA:73,1
DA:74,1
DA:75,1
DA:77,4
DA:78,1
DA:79,1
DA:80,1
DA:82,1
DA:83,1
DA:84,1
LF:65
LH:65
end_of_record
TN:
SF:/home/thanga-inc-5829/Documents/Syringr_project/tests/test_states.cpp
FN:11,11,_ZN42pump_state_test_initial_state_is_idle_Test8TestBodyEv
FN:11,11,_ZN42pump_state_test_initial_state_is_idle_TestC2Ev
FN:11,11,_ZN42pump_state_test_initial_state_is_idle_TestD0Ev
FN:11,11,_ZN42pump_state_test_initial_state_is_idle_TestD2Ev
FN:16,16,_ZN44pump_state_test_idle_start_goes_priming_Test8TestBodyEv
FN:16,16,_ZN44pump_state_test_idle_start_goes_priming_TestC2Ev
FN:16,16,_ZN44pump_state_test_idle_start_goes_priming_TestD0Ev
FN:16,16,_ZN44pump_state_test_idle_start_goes_priming_TestD2Ev
FN:17,17,_ZN38pump_state_test_idle_stop_ignored_Test8TestBodyEv
FN:17,17,_ZN38pump_state_test_idle_stop_ignored_TestC2Ev
FN:17,17,_ZN38pump_state_test_idle_stop_ignored_TestD0Ev
FN:17,17,_ZN38pump_state_test_idle_stop_ignored_TestD2Ev
FN:18,18,_ZN39pump_state_test_idle_pause_ignored_Test8TestBodyEv
FN:18,18,_ZN39pump_state_test_idle_pause_ignored_TestC2Ev
FN:18,18,_ZN39pump_state_test_idle_pause_ignored_TestD0Ev
FN:18,18,_ZN39pump_state_test_idle_pause_ignored_TestD2Ev
FN:19,19,_ZN43pump_state_test_idle_occlusion_ignored_Test8TestBodyEv
FN:19,19,_ZN43pump_state_test_idle_occlusion_ignored_TestC2Ev
FN:19,19,_ZN43pump_state_test_idle_occlusion_ignored_TestD0Ev
FN:19,19,_ZN43pump_state_test_idle_occlusion_ignored_TestD2Ev
FN:20,20,_ZN42pump_state_test_idle_complete_ignored_Test8TestBodyEv
FN:20,20,_ZN42pump_state_test_idle_complete_ignored_TestC2Ev
FN:20,20,_ZN42pump_state_test_idle_complete_ignored_TestD0Ev
FN:20,20,_ZN42pump_state_test_idle_complete_ignored_TestD2Ev
FN:23,23,_ZN48pump_state_test_priming_start_goes_infusing_Test8TestBodyEv
FN:23,23,_ZN48pump_state_test_priming_start_goes_infusing_TestC2Ev
FN:23,23,_ZN48pump_state_test_priming_start_goes_infusing_TestD0Ev
FN:23,23,_ZN48pump_state_test_priming_start_goes_infusing_TestD2Ev
FN:24,24,_ZN43pump_state_test_priming_stop_goes_idle_Test8TestBodyEv
FN:24,24,_ZN43pump_state_test_priming_stop_goes_idle_TestC2Ev
FN:24,24,_ZN43pump_state_test_priming_stop_goes_idle_TestD0Ev
FN:24,24,_ZN43pump_state_test_priming_stop_goes_idle_TestD2Ev
FN:25,25,_ZN42pump_state_test_priming_pause_ignored_Test8TestBodyEv
FN:25,25,_ZN42pump_state_test_priming_pause_ignored_TestC2Ev
FN:25,25,_ZN42pump_state_test_priming_pause_ignored_TestD0Ev
FN:25,25,_ZN42pump_state_test_priming_pause_ignored_TestD2Ev
FN:26,26,_ZN53pump_state_test_priming_occlusion_goes_occlusion_Test8TestBodyEv
FN:26,26,_ZN53pump_state_test_priming_occlusion_goes_occlusion_TestC2Ev
FN:26,26,_ZN53pump_state_test_priming_occlusion_goes_occlusion_TestD0Ev
FN:26,26,_ZN53pump_state_test_priming_occlusion_goes_occlusion_TestD2Ev
FN:27,27,_ZN45pump_state_test_priming_complete_ignored_Test8TestBodyEv
FN:27,27,_ZN45pump_state_test_priming_complete_ignored_TestC2Ev
FN:27,27,_ZN45pump_state_test_priming_complete_ignored_TestD0Ev
FN:27,27,_ZN45pump_state_test_priming_complete_ignored_TestD2Ev
FN:30,30,_ZN43pump_state_test_infusing_start_ignored_Test8TestBodyEv
FN:30,30,_ZN43pump_state_test_infusing_start_ignored_TestC2Ev
FN:30,30,_ZN43pump_state_test_infusing_start_ignored_TestD0Ev
FN:30,30,_ZN43pump_state_test_infusing_start_ignored_TestD2Ev
FN:31,31,_ZN44pump_state_test_infusing_stop_goes_idle_Test8TestBodyEv
FN:31,31,_ZN44pump_state_test_infusing_stop_goes_idle_TestC2Ev
FN:31,31,_ZN44pump_state_test_infusing_stop_goes_idle_TestD0Ev
FN:31,31,_ZN44pump_state_test_infusing_stop_goes_idle_TestD2Ev
FN:32,32,_ZN48pump_state_test_infusing_pause_goes_pausing_Test8TestBodyEv
FN:32,32,_ZN48pump_state_test_infusing_pause_goes_pausing_TestC2Ev
FN:32,32,_ZN48pump_state_test_infusing_pause_goes_pausing_TestD0Ev
FN:32,32,_ZN48pump_state_test_infusing_pause_goes_pausing_TestD2Ev
FN:33,33,_ZN54pump_state_test_infusing_occlusion_goes_occlusion_Test8TestBodyEv
FN:33,33,_ZN54pump_state_test_infusing_occlusion_goes_occlusion_TestC2Ev
FN:33,33,_ZN54pump_state_test_infusing_occlusion_goes_occlusion_TestD0Ev
FN:33,33,_ZN54pump_state_test_infusing_occlusion_goes_occlusion_TestD2Ev
FN:34,34,_ZN52pump_state_test_infusing_complete_goes_complete_Test8TestBodyEv
FN:34,34,_ZN52pump_state_test_infusing_complete_goes_complete_TestC2Ev
FN:34,34,_ZN52pump_state_test_infusing_complete_goes_complete_TestD0Ev
FN:34,34,_ZN52pump_state_test_infusing_complete_goes_complete_TestD2Ev
FN:37,37,_ZN48pump_state_test_pausing_start_goes_infusing_Test8TestBodyEv
FN:37,37,_ZN48pump_state_test_pausing_start_goes_infusing_TestC2Ev
FN:37,37,_ZN48pump_state_test_pausing_start_goes_infusing_TestD0Ev
FN:37,37,_ZN48pump_state_test_pausing_start_goes_infusing_TestD2Ev
FN:38,38,_ZN43pump_state_test_pausing_stop_goes_idle_Test8TestBodyEv
FN:38,38,_ZN43pump_state_test_pausing_stop_goes_idle_TestC2Ev
FN:38,38,_ZN43pump_state_test_pausing_stop_goes_idle_TestD0Ev
FN:38,38,_ZN43pump_state_test_pausing_stop_goes_idle_TestD2Ev
FN:39,39,_ZN42pump_state_test_pausing_pause_ignored_Test8TestBodyEv
FN:39,39,_ZN42pump_state_test_pausing_pause_ignored_TestC2Ev
FN:39,39,_ZN42pump_state_test_pausing_pause_ignored_TestD0Ev
FN:39,39,_ZN42pump_state_test_pausing_pause_ignored_TestD2Ev
FN:40,40,_ZN46pump_state_test_pausing_occlusion_ignored_Test8TestBodyEv
FN:40,40,_ZN46pump_state_test_pausing_occlusion_ignored_TestC2Ev
FN:40,40,_ZN46pump_state_test_pausing_occlusion_ignored_TestD0Ev
FN:40,40,_ZN46pump_state_test_pausing_occlusion_ignored_TestD2Ev
FN:41,41,_ZN45pump_state_test_pausing_complete_ignored_Test8TestBodyEv
FN:41,41,_ZN45pump_state_test_pausing_complete_ignored_TestC2Ev
FN:41,41,_ZN45pump_state_test_pausing_complete_ignored_TestD0Ev
FN:41,41,_ZN45pump_state_test_pausing_complete_ignored_TestD2Ev
FN:44,44,_ZN45pump_state_test_occlusion_stop_goes_idle_Test8TestBodyEv
FN:44,44,_ZN45pump_state_test_occlusion_stop_goes_idle_TestC2Ev
FN:44,44,_ZN45pump_state_test_occlusion_stop_goes_idle_TestD0Ev
FN:44,44,_ZN45pump_state_test_occlusion_stop_goes_idle_TestD2Ev
FN:45,45,_ZN44pump_state_test_occlusion_start_ignored_Test8TestBodyEv
FN:45,45,_ZN44pump_state_test_occlusion_start_ignored_TestC2Ev
FN:45,45,_ZN44pump_state_test_occlusion_start_ignored_TestD0Ev
FN:45,45,_ZN44pump_state_test_occlusion_start_ignored_TestD2Ev
FN:46,46,_ZN44pump_state_test_occlusion_pause_ignored_Test8TestBodyEv
FN:46,46,_ZN44pump_state_test_occlusion_pause_ignored_TestC2Ev
FN:46,46,_ZN44pump_state_test_occlusion_pause_ignored_TestD0Ev
FN:46,46,_ZN44pump_state_test_occlusion_pause_ignored_TestD2Ev
FN:47,47,_ZN48pump_state_test_occlusion_occlusion_ignored_Test8TestBodyEv
FN:47,47,_ZN48pump_state_test_occlusion_occlusion_ignored_TestC2Ev
FN:47,47,_ZN48pump_state_test_occlusion_occlusion_ignored_TestD0Ev
FN:47,47,_ZN48pump_state_test_occlusion_occlusion_ignored_TestD2Ev
FN:48,48,_ZN47pump_state_test_occlusion_complete_ignored_Test8TestBodyEv
FN:48,48,_ZN47pump_state_test_occlusion_complete_ignored_TestC2Ev
FN:48,48,_ZN47pump_state_test_occlusion_complete_ignored_TestD0Ev
FN:48,48,_ZN47pump_state_test_occlusion_complete_ignored_TestD2Ev
FN:51,51,_ZN48pump_state_test_complete_start_goes_priming_Test8TestBodyEv
FN:51,51,_ZN48pump_state_test_complete_start_goes_priming_TestC2Ev
FN:51,51,_ZN48pump_state_test_complete_start_goes_priming_TestD0Ev
FN:51,51,_ZN48pump_state_test_complete_start_goes_priming_TestD2Ev
FN:52,52,_ZN42pump_state_test_complete_stop_ignored_Test8TestBodyEv
FN:52,52,_ZN42pump_state_test_complete_stop_ignored_TestC2Ev
FN:52,52,_ZN42pump_state_test_complete_stop_ignored_TestD0Ev
FN:52,52,_ZN42pump_state_test_complete_stop_ignored_TestD2Ev
FN:53,53,_ZN43pump_state_test_complete_pause_ignored_Test8TestBodyEv
FN:53,53,_ZN43pump_state_test_complete_pause_ignored_TestC2Ev
FN:53,53,_ZN43pump_state_test_complete_pause_ignored_TestD0Ev
FN:53,53,_ZN43pump_state_test_complete_pause_ignored_TestD2Ev
FN:54,54,_ZN47pump_state_test_complete_occlusion_ignored_Test8TestBodyEv
FN:54,54,_ZN47pump_state_test_complete_occlusion_ignored_TestC2Ev
FN:54,54,_ZN47pump_state_test_complete_occlusion_ignored_TestD0Ev
FN:54,54,_ZN47pump_state_test_complete_occlusion_ignored_TestD2Ev
FN:55,55,_ZN46pump_state_test_complete_complete_ignored_Test8TestBodyEv
FN:55,55,_ZN46pump_state_test_complete_complete_ignored_TestC2Ev
FN:55,55,_ZN46pump_state_test_complete_complete_ignored_TestD0Ev
FN:55,55,_ZN46pump_state_test_complete_complete_ignored_TestD2Ev
FN:58,58,_ZN45pump_state_test_setrate_sets_motor_delay_Test8TestBodyEv
FN:58,58,_ZN45pump_state_test_setrate_sets_motor_delay_TestC2Ev
FN:58,58,_ZN45pump_state_test_setrate_sets_motor_delay_TestD0Ev
FN:58,58,_ZN45pump_state_test_setrate_sets_motor_delay_TestD2Ev
FN:63,66,main
FNDA:1,_ZN42pump_state_test_initial_state_is_idle_Test8TestBodyEv
FNDA:1,_ZN42pump_state_test_initial_state_is_idle_TestC2Ev
FNDA:1,_ZN42pump_state_test_initial_state_is_idle_TestD0Ev
FNDA:1,_ZN42pump_state_test_initial_state_is_idle_TestD2Ev
FNDA:1,_ZN44pump_state_test_idle_start_goes_priming_Test8TestBodyEv
FNDA:1,_ZN44pump_state_test_idle_start_goes_priming_TestC2Ev
FNDA:1,_ZN44pump_state_test_idle_start_goes_priming_TestD0Ev
FNDA:1,_ZN44pump_state_test_idle_start_goes_priming_TestD2Ev
FNDA:1,_ZN38pump_state_test_idle_stop_ignored_Test8TestBodyEv
FNDA:1,_ZN38pump_state_test_idle_stop_ignored_TestC2Ev
FNDA:1,_ZN38pump_state_test_idle_stop_ignored_TestD0Ev
FNDA:1,_ZN38pump_state_test_idle_stop_ignored_TestD2Ev
FNDA:1,_ZN39pump_state_test_idle_pause_ignored_Test8TestBodyEv
FNDA:1,_ZN39pump_state_test_idle_pause_ignored_TestC2Ev
FNDA:1,_ZN39pump_state_test_idle_pause_ignored_TestD0Ev
FNDA:1,_ZN39pump_state_test_idle_pause_ignored_TestD2Ev
FNDA:1,_ZN43pump_state_test_idle_occlusion_ignored_Test8TestBodyEv
FNDA:1,_ZN43pump_state_test_idle_occlusion_ignored_TestC2Ev
FNDA:1,_ZN43pump_state_test_idle_occlusion_ignored_TestD0Ev
FNDA:1,_ZN43pump_state_test_idle_occlusion_ignored_TestD2Ev
FNDA:1,_ZN42pump_state_test_idle_complete_ignored_Test8TestBodyEv
FNDA:1,_ZN42pump_state_test_idle_complete_ignored_TestC2Ev
FNDA:1,_ZN42pump_state_test_idle_complete_ignored_TestD0Ev
FNDA:1,_ZN42pump_state_test_idle_complete_ignored_TestD2Ev
FNDA:1,_ZN48pump_state_test_priming_start_goes_infusing_Test8TestBodyEv
FNDA:1,_ZN48pump_state_test_priming_start_goes_infusing_TestC2Ev
FNDA:1,_ZN48pump_state_test_priming_start_goes_infusing_TestD0Ev
FNDA:1,_ZN48pump_state_test_priming_start_goes_infusing_TestD2Ev
FNDA:1,_ZN43pump_state_test_priming_stop_goes_idle_Test8TestBodyEv
FNDA:1,_ZN43pump_state_test_priming_stop_goes_idle_TestC2Ev
FNDA:1,_ZN43pump_state_test_priming_stop_goes_idle_TestD0Ev
FNDA:1,_ZN43pump_state_test_priming_stop_goes_idle_TestD2Ev
FNDA:1,_ZN42pump_state_test_priming_pause_ignored_Test8TestBodyEv
FNDA:1,_ZN42pump_state_test_priming_pause_ignored_TestC2Ev
FNDA:1,_ZN42pump_state_test_priming_pause_ignored_TestD0Ev
FNDA:1,_ZN42pump_state_test_priming_pause_ignored_TestD2Ev
FNDA:1,_ZN53pump_state_test_priming_occlusion_goes_occlusion_Test8TestBodyEv
FNDA:1,_ZN53pump_state_test_priming_occlusion_goes_occlusion_TestC2Ev
FNDA:1,_ZN53pump_state_test_priming_occlusion_goes_occlusion_TestD0Ev
FNDA:1,_ZN53pump_state_test_priming_occlusion_goes_occlusion_TestD2Ev
FNDA:1,_ZN45pump_state_test_priming_complete_ignored_Test8TestBodyEv
FNDA:1,_ZN45pump_state_test_priming_complete_ignored_TestC2Ev
FNDA:1,_ZN45pump_state_test_priming_complete_ignored_TestD0Ev
FNDA:1,_ZN45pump_state_test_priming_complete_ignored_TestD2Ev
FNDA:1,_ZN43pump_state_test_infusing_start_ignored_Test8TestBodyEv
FNDA:1,_ZN43pump_state_test_infusing_start_ignored_TestC2Ev
FNDA:1,_ZN43pump_state_test_infusing_start_ignored_TestD0Ev
FNDA:1,_ZN43pump_state_test_infusing_start_ignored_TestD2Ev
FNDA:1,_ZN44pump_state_test_infusing_stop_goes_idle_Test8TestBodyEv
FNDA:1,_ZN44pump_state_test_infusing_stop_goes_idle_TestC2Ev
FNDA:1,_ZN44pump_state_test_infusing_stop_goes_idle_TestD0Ev
FNDA:1,_ZN44pump_state_test_infusing_stop_goes_idle_TestD2Ev
FNDA:1,_ZN48pump_state_test_infusing_pause_goes_pausing_Test8TestBodyEv
FNDA:1,_ZN48pump_state_test_infusing_pause_goes_pausing_TestC2Ev
FNDA:1,_ZN48pump_state_test_infusing_pause_goes_pausing_TestD0Ev
FNDA:1,_ZN48pump_state_test_infusing_pause_goes_pausing_TestD2Ev
FNDA:1,_ZN54pump_state_test_infusing_occlusion_goes_occlusion_Test8TestBodyEv
FNDA:1,_ZN54pump_state_test_infusing_occlusion_goes_occlusion_TestC2Ev
FNDA:1,_ZN54pump_state_test_infusing_occlusion_goes_occlusion_TestD0Ev
FNDA:1,_ZN54pump_state_test_infusing_occlusion_goes_occlusion_TestD2Ev
FNDA:1,_ZN52pump_state_test_infusing_complete_goes_complete_Test8TestBodyEv
FNDA:1,_ZN52pump_state_test_infusing_complete_goes_complete_TestC2Ev
FNDA:1,_ZN52pump_state_test_infusing_complete_goes_complete_TestD0Ev
FNDA:1,_ZN52pump_state_test_infusing_complete_goes_complete_TestD2Ev
FNDA:1,_ZN48pump_state_test_pausing_start_goes_infusing_Test8TestBodyEv
FNDA:1,_ZN48pump_state_test_pausing_start_goes_infusing_TestC2Ev
FNDA:1,_ZN48pump_state_test_pausing_start_goes_infusing_TestD0Ev
FNDA:1,_ZN48pump_state_test_pausing_start_goes_infusing_TestD2Ev
FNDA:1,_ZN43pump_state_test_pausing_stop_goes_idle_Test8TestBodyEv
FNDA:1,_ZN43pump_state_test_pausing_stop_goes_idle_TestC2Ev
FNDA:1,_ZN43pump_state_test_pausing_stop_goes_idle_TestD0Ev
FNDA:1,_ZN43pump_state_test_pausing_stop_goes_idle_TestD2Ev
FNDA:1,_ZN42pump_state_test_pausing_pause_ignored_Test8TestBodyEv
FNDA:1,_ZN42pump_state_test_pausing_pause_ignored_TestC2Ev
FNDA:1,_ZN42pump_state_test_pausing_pause_ignored_TestD0Ev
FNDA:1,_ZN42pump_state_test_pausing_pause_ignored_TestD2Ev
FNDA:1,_ZN46pump_state_test_pausing_occlusion_ignored_Test8TestBodyEv
FNDA:1,_ZN46pump_state_test_pausing_occlusion_ignored_TestC2Ev
FNDA:1,_ZN46pump_state_test_pausing_occlusion_ignored_TestD0Ev
FNDA:1,_ZN46pump_state_test_pausing_occlusion_ignored_TestD2Ev
FNDA:1,_ZN45pump_state_test_pausing_complete_ignored_Test8TestBodyEv
FNDA:1,_ZN45pump_state_test_pausing_complete_ignored_TestC2Ev
FNDA:1,_ZN45pump_state_test_pausing_complete_ignored_TestD0Ev
FNDA:1,_ZN45pump_state_test_pausing_complete_ignored_TestD2Ev
FNDA:1,_ZN45pump_state_test_occlusion_stop_goes_idle_Test8TestBodyEv
FNDA:1,_ZN45pump_state_test_occlusion_stop_goes_idle_TestC2Ev
FNDA:1,_ZN45pump_state_test_occlusion_stop_goes_idle_TestD0Ev
FNDA:1,_ZN45pump_state_test_occlusion_stop_goes_idle_TestD2Ev
FNDA:1,_ZN44pump_state_test_occlusion_start_ignored_Test8TestBodyEv
FNDA:1,_ZN44pump_state_test_occlusion_start_ignored_TestC2Ev
FNDA:1,_ZN44pump_state_test_occlusion_start_ignored_TestD0Ev
FNDA:1,_ZN44pump_state_test_occlusion_start_ignored_TestD2Ev
FNDA:1,_ZN44pump_state_test_occlusion_pause_ignored_Test8TestBodyEv
FNDA:1,_ZN44pump_state_test_occlusion_pause_ignored_TestC2Ev
FNDA:1,_ZN44pump_state_test_occlusion_pause_ignored_TestD0Ev
FNDA:1,_ZN44pump_state_test_occlusion_pause_ignored_TestD2Ev
FNDA:1,_ZN48pump_state_test_occlusion_occlusion_ignored_Test8TestBodyEv
FNDA:1,_ZN48pump_state_test_occlusion_occlusion_ignored_TestC2Ev
FNDA:1,_ZN48pump_state_test_occlusion_occlusion_ignored_TestD0Ev
FNDA:1,_ZN48pump_state_test_occlusion_occlusion_ignored_TestD2Ev
FNDA:1,_ZN47pump_state_test_occlusion_complete_ignored_Test8TestBodyEv
FNDA:1,_ZN47pump_state_test_occlusion_complete_ignored_TestC2Ev
FNDA:1,_ZN47pump_state_test_occlusion_complete_ignored_TestD0Ev
FNDA:1,_ZN47pump_state_test_occlusion_complete_ignored_TestD2Ev
FNDA:1,_ZN48pump_state_test_complete_start_goes_priming_Test8TestBodyEv
FNDA:1,_ZN48pump_state_test_complete_start_goes_priming_TestC2Ev
FNDA:1,_ZN48pump_state_test_complete_start_goes_priming_TestD0Ev
FNDA:1,_ZN48pump_state_test_complete_start_goes_priming_TestD2Ev
FNDA:1,_ZN42pump_state_test_complete_stop_ignored_Test8TestBodyEv
FNDA:1,_ZN42pump_state_test_complete_stop_ignored_TestC2Ev
FNDA:1,_ZN42pump_state_test_complete_stop_ignored_TestD0Ev
FNDA:1,_ZN42pump_state_test_complete_stop_ignored_TestD2Ev
FNDA:1,_ZN43pump_state_test_complete_pause_ignored_Test8TestBodyEv
FNDA:1,_ZN43pump_state_test_complete_pause_ignored_TestC2Ev
FNDA:1,_ZN43pump_state_test_complete_pause_ignored_TestD0Ev
FNDA:1,_ZN43pump_state_test_complete_pause_ignored_TestD2Ev
FNDA:1,_ZN47pump_state_test_complete_occlusion_ignored_Test8TestBodyEv
FNDA:1,_ZN47pump_state_test_complete_occlusion_ignored_TestC2Ev
FNDA:1,_ZN47pump_state_test_complete_occlusion_ignored_TestD0Ev
FNDA:1,_ZN47pump_state_test_complete_occlusion_ignored_TestD2Ev
FNDA:1,_ZN46pump_state_test_complete_complete_ignored_Test8TestBodyEv
FNDA:1,_ZN46pump_state_test_complete_complete_ignored_TestC2Ev
FNDA:1,_ZN46pump_state_test_complete_complete_ignored_TestD0Ev
FNDA:1,_ZN46pump_state_test_complete_complete_ignored_TestD2Ev
FNDA:1,_ZN45pump_state_test_setrate_sets_motor_delay_Test8TestBodyEv
FNDA:1,_ZN45pump_state_test_setrate_sets_motor_delay_TestC2Ev
FNDA:1,_ZN45pump_state_test_setrate_sets_motor_delay_TestD0Ev
FNDA:1,_ZN45pump_state_test_setrate_sets_motor_delay_TestD2Ev
FNDA:1,main
FNF:129
FNH:129
DA:11,4
DA:12,1
DA:13,1
DA:16,4
DA:17,4
DA:18,4
DA:19,4
DA:20,4
DA:23,4
DA:24,4
DA:25,4
DA:26,4
DA:27,4
DA:30,4
DA:31,4
DA:32,4
DA:33,4
DA:34,4
DA:37,4
DA:38,4
DA:39,4
DA:40,4
DA:41,4
DA:44,4
DA:45,4
DA:46,4
DA:47,4
DA:48,4
DA:51,4
DA:52,4
DA:53,4
DA:54,4
DA:55,4
DA:58,4
DA:59,1
DA:60,1
DA:61,1
DA:63,1
DA:64,1
DA:65,1
LF:40
LH:40
end_of_record
TN:
SF:/home/thanga-inc-5829/Documents/Syringr_project/tests/test_volume.cpp
FN:14,14,_ZN42volume_test_volume_one_rev_equals_2ml_Test8TestBodyEv
FN:14,14,_ZN42volume_test_volume_one_rev_equals_2ml_TestC2Ev
FN:14,14,_ZN42volume_test_volume_one_rev_equals_2ml_TestD0Ev
FN:14,14,_ZN42volume_test_volume_one_rev_equals_2ml_TestD2Ev
FN:19,19,_ZN43volume_test_volume_half_rev_equals_1ml_Test8TestBodyEv
FN:19,19,_ZN43volume_test_volume_half_rev_equals_1ml_TestC2Ev
FN:19,19,_ZN43volume_test_volume_half_rev_equals_1ml_TestD0Ev
FN:19,19,_ZN43volume_test_volume_half_rev_equals_1ml_TestD2Ev
FN:24,24,_ZN36volume_test_volume_reset_clears_Test8TestBodyEv
FN:24,24,_ZN36volume_test_volume_reset_clears_TestC2Ev
FN:24,24,_ZN36volume_test_volume_reset_clears_TestD0Ev
FN:24,24,_ZN36volume_test_volume_reset_clears_TestD2Ev
FN:29,32,main
FN:9,9,_ZN34volume_test_volume_zero_steps_Test8TestBodyEv
FN:9,9,_ZN34volume_test_volume_zero_steps_TestC2Ev
FN:9,9,_ZN34volume_test_volume_zero_steps_TestD0Ev
FN:9,9,_ZN34volume_test_volume_zero_steps_TestD2Ev
FNDA:1,_ZN42volume_test_volume_one_rev_equals_2ml_Test8TestBodyEv
FNDA:1,_ZN42volume_test_volume_one_rev_equals_2ml_TestC2Ev
FNDA:1,_ZN42volume_test_volume_one_rev_equals_2ml_TestD0Ev
FNDA:1,_ZN42volume_test_volume_one_rev_equals_2ml_TestD2Ev
FNDA:1,_ZN43volume_test_volume_half_rev_equals_1ml_Test8TestBodyEv
FNDA:1,_ZN43volume_test_volume_half_rev_equals_1ml_TestC2Ev
FNDA:1,_ZN43volume_test_volume_half_rev_equals_1ml_TestD0Ev
FNDA:1,_ZN43volume_test_volume_half_rev_equals_1ml_TestD2Ev
FNDA:1,_ZN36volume_test_volume_reset_clears_Test8TestBodyEv
FNDA:1,_ZN36volume_test_volume_reset_clears_TestC2Ev
FNDA:1,_ZN36volume_test_volume_reset_clears_TestD0Ev
FNDA:1,_ZN36volume_test_volume_reset_clears_TestD2Ev
FNDA:1,main
FNDA:1,_ZN34volume_test_volume_zero_steps_Test8TestBodyEv
FNDA:1,_ZN34volume_test_volume_zero_steps_TestC2Ev
FNDA:1,_ZN34volume_test_volume_zero_steps_TestD0Ev
FNDA:1,_ZN34volume_test_volume_zero_steps_TestD2Ev
FNF:17
FNH:17
DA:9,4
DA:10,1
DA:11,1
DA:12,1
DA:14,4
DA:15,1
DA:16,1
DA:17,1
DA:19,4
DA:20,1
DA:21,1
DA:22,1
DA:24,4
DA:25,1
DA:26,1
DA:27,1
DA:28,1
DA:29,1
DA:30,1
DA:31,1
LF:20
LH:20
end_of_record
TN:
SF:/usr/include/c++/13/array
FN:200,204,_ZNSt5arrayIP13AlarmobserverLm3EEixEm
FNDA:44,_ZNSt5arrayIP13AlarmobserverLm3EEixEm
FNF:1
FNH:1
DA:200,44
DA:203,44
LF:2
LH:2
end_of_record
TN:
SF:/usr/include/c++/13/bits/alloc_traits.h
FNF:0
FNH:0
DA:482,1440
DA:517,154
DA:576,1839
DA:588,64
LF:4
LH:4
end_of_record
TN:
SF:/usr/include/c++/13/bits/allocator.h
FNF:0
FNH:0
DA:168,192
DA:184,64
DA:191,1440
DA:193,0
DA:194,0
DA:195,0
DA:198,1440
DA:205,154
DA:207,0
DA:208,0
DA:210,154
LF:11
LH:6
end_of_record
TN:
SF:/usr/include/c++/13/bits/basic_string.h
FN:1078,1079,_ZNKSt7__cxx1112basic_stringIcSt11char_traitsIcESaIcEE6lengthEv
FN:1084,1085,_ZNKSt7__cxx1112basic_stringIcSt11char_traitsIcESaIcEE8max_sizeEv
FN:124,137,_ZNSt7__cxx1112basic_stringIcSt11char_traitsIcESaIcEE11_S_allocateERS3_m
FN:188,189,_ZNSt7__cxx1112basic_stringIcSt11char_traitsIcESaIcEE12_Alloc_hiderC2EPcRKS3_
FN:192,193,_ZNSt7__cxx1112basic_stringIcSt11char_traitsIcESaIcEE12_Alloc_hiderC2EPcOS3_
FN:212,213,_ZNSt7__cxx1112basic_stringIcSt11char_traitsIcESaIcEE7_M_dataEPc
FN:217,218,_ZNSt7__cxx1112basic_stringIcSt11char_traitsIcESaIcEE9_M_lengthEm
FN:222,223,_ZNKSt7__cxx1112basic_stringIcSt11char_traitsIcESaIcEE7_M_dataEv
FN:227,234,_ZNSt7__cxx1112basic_stringIcSt11char_traitsIcESaIcEE13_M_local_dataEv
FN:238,245,_ZNKSt7__cxx1112basic_stringIcSt11char_traitsIcESaIcEE13_M_local_dataEv
FN:249,250,_ZNSt7__cxx1112basic_stringIcSt11char_traitsIcESaIcEE11_M_capacityEm
FN:254,258,_ZNSt7__cxx1112basic_stringIcSt11char_traitsIcESaIcEE13_M_set_lengthEm
FN:2595,2596,_ZNKSt7__cxx1112basic_stringIcSt11char_traitsIcESaIcEE5c_strEv
FN:262,271,_ZNKSt7__cxx1112basic_stringIcSt11char_traitsIcESaIcEE11_M_is_localEv
FN:280,284,_ZNSt7__cxx1112basic_stringIcSt11char_traitsIcESaIcEE10_M_disposeEv
FN:288,289,_ZNSt7__cxx1112basic_stringIcSt11char_traitsIcESaIcEE10_M_destroyEm
FN:336,337,_ZNSt7__cxx1112basic_stringIcSt11char_traitsIcESaIcEE16_M_get_allocatorEv
FN:341,342,_ZNKSt7__cxx1112basic_stringIcSt11char_traitsIcESaIcEE16_M_get_allocatorEv
FN:425,431,_ZNSt7__cxx1112basic_stringIcSt11char_traitsIcESaIcEE7_S_copyEPcPKcm
FN:477,478,_ZNSt7__cxx1112basic_stringIcSt11char_traitsIcESaIcEE13_S_copy_charsEPcS5_S5_
FN:482,484,_ZNSt7__cxx1112basic_stringIcSt11char_traitsIcESaIcEE13_S_copy_charsEPcPKcS7_
FN:547,553,_ZNSt7__cxx1112basic_stringIcSt11char_traitsIcESaIcEEC2ERKS4_
FN:641,650,_ZNSt7__cxx1112basic_stringIcSt11char_traitsIcESaIcEEC2IS3_EEPKcRKS3_
FN:803,804,_ZNSt7__cxx1112basic_stringIcSt11char_traitsIcESaIcEED2Ev
FNDA:64,_ZNKSt7__cxx1112basic_stringIcSt11char_traitsIcESaIcEE6lengthEv
FNDA:1839,_ZNKSt7__cxx1112basic_stringIcSt11char_traitsIcESaIcEE8max_sizeEv
FNDA:1440,_ZNSt7__cxx1112basic_stringIcSt11char_traitsIcESaIcEE11_S_allocateERS3_m
FNDA:64,_ZNSt7__cxx1112basic_stringIcSt11char_traitsIcESaIcEE12_Alloc_hiderC2EPcRKS3_
FNDA:64,_ZNSt7__cxx1112basic_stringIcSt11char_traitsIcESaIcEE12_Alloc_hiderC2EPcOS3_
FNDA:128,_ZNSt7__cxx1112basic_stringIcSt11char_traitsIcESaIcEE7_M_dataEPc
FNDA:128,_ZNSt7__cxx1112basic_stringIcSt11char_traitsIcESaIcEE9_M_lengthEm
FNDA:830,_ZNKSt7__cxx1112basic_stringIcSt11char_traitsIcESaIcEE7_M_dataEv
FNDA:128,_ZNSt7__cxx1112basic_stringIcSt11char_traitsIcESaIcEE13_M_local_dataEv
FNDA:291,_ZNKSt7__cxx1112basic_stringIcSt11char_traitsIcESaIcEE13_M_local_dataEv
FNDA:128,_ZNSt7__cxx1112basic_stringIcSt11char_traitsIcESaIcEE11_M_capacityEm
FNDA:128,_ZNSt7__cxx1112basic_stringIcSt11char_traitsIcESaIcEE13_M_set_lengthEm
FNDA:1,_ZNKSt7__cxx1112basic_stringIcSt11char_traitsIcESaIcEE5c_strEv
FNDA:291,_ZNKSt7__cxx1112basic_stringIcSt11char_traitsIcESaIcEE11_M_is_localEv
FNDA:291,_ZNSt7__cxx1112basic_stringIcSt11char_traitsIcESaIcEE10_M_disposeEv
FNDA:154,_ZNSt7__cxx1112basic_stringIcSt11char_traitsIcESaIcEE10_M_destroyEm
FNDA:1594,_ZNSt7__cxx1112basic_stringIcSt11char_traitsIcESaIcEE16_M_get_allocatorEv
FNDA:1903,_ZNKSt7__cxx1112basic_stringIcSt11char_traitsIcESaIcEE16_M_get_allocatorEv
FNDA:128,_ZNSt7__cxx1112basic_stringIcSt11char_traitsIcESaIcEE7_S_copyEPcPKcm
FNDA:64,_ZNSt7__cxx1112basic_stringIcSt11char_traitsIcESaIcEE13_S_copy_charsEPcS5_S5_
FNDA:64,_ZNSt7__cxx1112basic_stringIcSt11char_traitsIcESaIcEE13_S_copy_charsEPcPKcS7_
FNDA:64,_ZNSt7__cxx1112basic_stringIcSt11char_traitsIcESaIcEEC2ERKS4_
FNDA:64,_ZNSt7__cxx1112basic_stringIcSt11char_traitsIcESaIcEEC2IS3_EEPKcRKS3_
FNDA:195,_ZNSt7__cxx1112basic_stringIcSt11char_traitsIcESaIcEED2Ev
FNF:24
FNH:24
DA:124,1440
DA:126,1440
DA:136,1440
DA:188,64
DA:189,64
DA:192,64
DA:193,64
DA:212,128
DA:213,128
DA:217,128
DA:218,128
DA:222,830
DA:223,830
DA:227,128
DA:230,128
DA:238,291
DA:241,291
DA:249,128
DA:250,128
DA:254,128
DA:256,128
DA:257,128
DA:258,128
DA:262,291
DA:264,291
DA:266,137
DA:267,0
DA:268,137
DA:270,154
DA:280,291
DA:282,291
DA:283,154
DA:284,291
DA:288,154
DA:289,154
DA:336,1594
DA:337,1594
DA:341,1903
DA:342,1903
DA:351,0
DA:352,0
DA:353,0
DA:355,0
DA:425,128
DA:427,128
DA:428,0
DA:430,128
DA:431,128
DA:477,64
DA:478,64
DA:482,64
DA:484,64
DA:547,64
DA:548,64
DA:549,64
DA:551,64
DA:553,64
DA:641,64
DA:642,64
DA:645,64
DA:646,0
DA:648,64
DA:649,64
DA:650,64
DA:803,195
DA:804,195
DA:1078,64
DA:1079,64
DA:1084,1839
DA:1085,3678
DA:2595,1
DA:2596,1
LF:72
LH:65
end_of_record
TN:
SF:/usr/include/c++/13/bits/basic_string.tcc
FN:138,160,_ZNSt7__cxx1112basic_stringIcSt11char_traitsIcESaIcEE9_M_createERmm
FN:221,252,_ZNSt7__cxx1112basic_stringIcSt11char_traitsIcESaIcEE12_M_constructIPKcEEvT_S8_St20forward_iterator_tag
FN:221,252,_ZNSt7__cxx1112basic_stringIcSt11char_traitsIcESaIcEE12_M_constructIPcEEvT_S7_St20forward_iterator_tag
FN:239,239,_ZZNSt7__cxx1112basic_stringIcSt11char_traitsIcESaIcEE12_M_constructIPKcEEvT_S8_St20forward_iterator_tagEN6_GuardC2EPS4_
FN:239,239,_ZZNSt7__cxx1112basic_stringIcSt11char_traitsIcESaIcEE12_M_constructIPcEEvT_S7_St20forward_iterator_tagEN6_GuardC2EPS4_
FN:242,242,_ZZNSt7__cxx1112basic_stringIcSt11char_traitsIcESaIcEE12_M_constructIPKcEEvT_S8_St20forward_iterator_tagEN6_GuardD2Ev
FN:242,242,_ZZNSt7__cxx1112basic_stringIcSt11char_traitsIcESaIcEE12_M_constructIPcEEvT_S7_St20forward_iterator_tagEN6_GuardD2Ev
FNDA:1440,_ZNSt7__cxx1112basic_stringIcSt11char_traitsIcESaIcEE9_M_createERmm
FNDA:64,_ZNSt7__cxx1112basic_stringIcSt11char_traitsIcESaIcEE12_M_constructIPKcEEvT_S8_St20forward_iterator_tag
FNDA:64,_ZNSt7__cxx1112basic_stringIcSt11char_traitsIcESaIcEE12_M_constructIPcEEvT_S7_St20forward_iterator_tag
FNDA:64,_ZZNSt7__cxx1112basic_stringIcSt11char_traitsIcESaIcEE12_M_constructIPKcEEvT_S8_St20forward_iterator_tagEN6_GuardC2EPS4_
FNDA:64,_ZZNSt7__cxx1112basic_stringIcSt11char_traitsIcESaIcEE12_M_constructIPcEEvT_S7_St20forward_iterator_tagEN6_GuardC2EPS4_
FNDA:64,_ZZNSt7__cxx1112basic_stringIcSt11char_traitsIcESaIcEE12_M_constructIPKcEEvT_S8_St20forward_iterator_tagEN6_GuardD2Ev
FNDA:64,_ZZNSt7__cxx1112basic_stringIcSt11char_traitsIcESaIcEE12_M_constructIPcEEvT_S7_St20forward_iterator_tagEN6_GuardD2Ev
FNF:7
FNH:7
DA:138,1440
DA:143,1440
DA:144,0
DA:149,1440
DA:151,399
DA:153,399
DA:154,0
DA:159,1440
DA:221,128
DA:225,128
DA:227,128
DA:229,128
DA:230,128
DA:239,128
DA:242,128
DA:245,128
DA:247,128
DA:249,128
DA:251,128
DA:252,128
LF:20
LH:18
end_of_record
TN:
SF:/usr/include/c++/13/bits/char_traits.h
FN:136,137,_ZN9__gnu_cxx11char_traitsIcE2eqERKcS3_
FN:199,206,_ZN9__gnu_cxx11char_traitsIcE6lengthEPKc
FN:253,268,_ZN9__gnu_cxx11char_traitsIcE4copyEPcPKcm
FN:351,359,_ZNSt11char_traitsIcE6assignERcRKc
FN:393,400,_ZNSt11char_traitsIcE6lengthEPKc
FN:427,436,_ZNSt11char_traitsIcE4copyEPcPKcm
FNDA:0,_ZN9__gnu_cxx11char_traitsIcE2eqERKcS3_
FNDA:0,_ZN9__gnu_cxx11char_traitsIcE6lengthEPKc
FNDA:0,_ZN9__gnu_cxx11char_traitsIcE4copyEPcPKcm
FNDA:128,_ZNSt11char_traitsIcE6assignERcRKc
FNDA:64,_ZNSt11char_traitsIcE6lengthEPKc
FNDA:128,_ZNSt11char_traitsIcE4copyEPcPKcm
FNF:6
FNH:3
DA:136,0
DA:137,0
DA:199,0
DA:202,0
DA:203,0
DA:204,0
DA:205,0
DA:253,0
DA:256,0
DA:257,0
DA:259,0
DA:261,0
DA:262,0
DA:263,0
DA:266,0
DA:267,0
DA:351,128
DA:354,128
DA:355,0
DA:358,128
DA:359,128
DA:393,64
DA:396,64
DA:397,0
DA:399,64
DA:427,128
DA:429,128
DA:430,0
DA:432,128
DA:433,0
DA:435,128
LF:31
LH:11
end_of_record
TN:
SF:/usr/include/c++/13/bits/move.h
FN:138,139,_ZSt9addressofIKcEPT_RS1_
FN:138,139,_ZSt9addressofIcEPT_RS0_
FN:51,52,_ZSt11__addressofIKcEPT_RS1_
FN:51,52,_ZSt11__addressofIcEPT_RS0_
FN:70,71,_ZSt7forwardIRKcEOT_RNSt16remove_referenceIS2_E4typeE
FN:97,98,_ZSt4moveIRPNSt7__cxx1112basic_stringIcSt11char_traitsIcESaIcEEEEONSt16remove_referenceIT_E4typeEOS9_
FN:97,98,_ZSt4moveIRPNSt7__cxx1118basic_stringstreamIcSt11char_traitsIcESaIcEEEEONSt16remove_referenceIT_E4typeEOS9_
FN:97,98,_ZSt4moveIRSaIcEEONSt16remove_referenceIT_E4typeEOS3_
FNDA:291,_ZSt9addressofIKcEPT_RS1_
FNDA:128,_ZSt9addressofIcEPT_RS0_
FNDA:291,_ZSt11__addressofIKcEPT_RS1_
FNDA:128,_ZSt11__addressofIcEPT_RS0_
FNDA:0,_ZSt7forwardIRKcEOT_RNSt16remove_referenceIS2_E4typeE
FNDA:1,_ZSt4moveIRPNSt7__cxx1112basic_stringIcSt11char_traitsIcESaIcEEEEONSt16remove_referenceIT_E4typeEOS9_
FNDA:1,_ZSt4moveIRPNSt7__cxx1118basic_stringstreamIcSt11char_traitsIcESaIcEEEEONSt16remove_referenceIT_E4typeEOS9_
FNDA:64,_ZSt4moveIRSaIcEEONSt16remove_referenceIT_E4typeEOS3_
FNF:8
FNH:7
DA:51,419
DA:52,419
DA:70,0
DA:71,0
DA:97,66
DA:98,66
DA:138,419
DA:139,419
LF:8
LH:6
end_of_record
TN:
SF:/usr/include/c++/13/bits/new_allocator.h
FN:126,152,_ZNSt15__new_allocatorIcE8allocateEmPKv
FN:156,173,_ZNSt15__new_allocatorIcE10deallocateEPcm
FNDA:1440,_ZNSt15__new_allocatorIcE8allocateEmPKv
FNDA:154,_ZNSt15__new_allocatorIcE10deallocateEPcm
FNF:2
FNH:2
DA:92,192
DA:126,1440
DA:134,1440
DA:140,0
DA:151,1440
DA:156,154
DA:172,154
DA:233,1440
LF:8
LH:7
end_of_record
TN:
SF:/usr/include/c++/13/bits/ptr_traits.h
FN:141,142,_ZNSt19__ptr_traits_ptr_toIPKcS0_Lb0EE10pointer_toERS0_
FN:141,142,_ZNSt19__ptr_traits_ptr_toIPccLb0EE10pointer_toERc
FNDA:291,_ZNSt19__ptr_traits_ptr_toIPKcS0_Lb0EE10pointer_toERS0_
FNDA:128,_ZNSt19__ptr_traits_ptr_toIPccLb0EE10pointer_toERc
FNF:2
FNH:2
DA:141,419
DA:142,419
LF:2
LH:2
end_of_record
TN:
SF:/usr/include/c++/13/bits/stl_construct.h
FN:94,97,_ZSt12construct_atIcJRKcEEDTgsnwcvPvLi0E_T_pispcl7declvalIT0_EEEEPS3_DpOS4_
FNDA:0,_ZSt12construct_atIcJRKcEEDTgsnwcvPvLi0E_T_pispcl7declvalIT0_EEEEPS3_DpOS4_
FNF:1
FNH:0
DA:94,0
DA:97,0
LF:2
LH:0
end_of_record
TN:
SF:/usr/include/c++/13/bits/stl_iterator_base_funcs.h
FNF:0
FNH:0
DA:106,128
DA:151,256
DA:152,256
LF:3
LH:3
end_of_record
TN:
SF:/usr/include/c++/13/bits/stl_iterator_base_types.h
FNF:0
FNH:0
DA:240,128
LF:1
LH:1
end_of_record
TN:
SF:/usr/include/c++/13/bits/unique_ptr.h
FN:197,197,_ZNSt15__uniq_ptr_implINSt7__cxx1112basic_stringIcSt11char_traitsIcESaIcEEESt14default_deleteIS5_EE6_M_ptrEv
FN:197,197,_ZNSt15__uniq_ptr_implINSt7__cxx1118basic_stringstreamIcSt11char_traitsIcESaIcEEESt14default_deleteIS5_EE6_M_ptrEv
FN:199,199,_ZNKSt15__uniq_ptr_implINSt7__cxx1112basic_stringIcSt11char_traitsIcESaIcEEESt14default_deleteIS5_EE6_M_ptrEv
FN:201,201,_ZNSt15__uniq_ptr_implINSt7__cxx1112basic_stringIcSt11char_traitsIcESaIcEEESt14default_deleteIS5_EE10_M_deleterEv
FN:201,201,_ZNSt15__uniq_ptr_implINSt7__cxx1118basic_stringstreamIcSt11char_traitsIcESaIcEEESt14default_deleteIS5_EE10_M_deleterEv
FN:398,406,_ZNSt10unique_ptrINSt7__cxx1112basic_stringIcSt11char_traitsIcESaIcEEESt14default_deleteIS5_EED2Ev
FN:398,406,_ZNSt10unique_ptrINSt7__cxx1118basic_stringstreamIcSt11char_traitsIcESaIcEEESt14default_deleteIS5_EED2Ev
FN:460,464,_ZNKSt10unique_ptrINSt7__cxx1112basic_stringIcSt11char_traitsIcESaIcEEESt14default_deleteIS5_EEptEv
FN:469,470,_ZNKSt10unique_ptrINSt7__cxx1112basic_stringIcSt11char_traitsIcESaIcEEESt14default_deleteIS5_EE3getEv
FN:475,476,_ZNSt10unique_ptrINSt7__cxx1112basic_stringIcSt11char_traitsIcESaIcEEESt14default_deleteIS5_EE11get_deleterEv
FN:475,476,_ZNSt10unique_ptrINSt7__cxx1118basic_stringstreamIcSt11char_traitsIcESaIcEEESt14default_deleteIS5_EE11get_deleterEv
FN:486,487,_ZNKSt10unique_ptrINSt7__cxx1112basic_stringIcSt11char_traitsIcESaIcEEESt14default_deleteIS5_EEcvbEv
FN:837,838,_ZSteqINSt7__cxx1112basic_stringIcSt11char_traitsIcESaIcEEESt14default_deleteIS5_EEbRKSt10unique_ptrIT_T0_EDn
FN:93,100,_ZNKSt14default_deleteINSt7__cxx1112basic_stringIcSt11char_traitsIcESaIcEEEEclEPS5_
FN:93,100,_ZNKSt14default_deleteINSt7__cxx1118basic_stringstreamIcSt11char_traitsIcESaIcEEEEclEPS5_
FNDA:68,_ZNSt15__uniq_ptr_implINSt7__cxx1112basic_stringIcSt11char_traitsIcESaIcEEESt14default_deleteIS5_EE6_M_ptrEv
FNDA:1,_ZNSt15__uniq_ptr_implINSt7__cxx1118basic_stringstreamIcSt11char_traitsIcESaIcEEESt14default_deleteIS5_EE6_M_ptrEv
FNDA:2,_ZNKSt15__uniq_ptr_implINSt7__cxx1112basic_stringIcSt11char_traitsIcESaIcEEESt14default_deleteIS5_EE6_M_ptrEv
FNDA:1,_ZNSt15__uniq_ptr_implINSt7__cxx1112basic_stringIcSt11char_traitsIcESaIcEEESt14default_deleteIS5_EE10_M_deleterEv
FNDA:1,_ZNSt15__uniq_ptr_implINSt7__cxx1118basic_stringstreamIcSt11char_traitsIcESaIcEEESt14default_deleteIS5_EE10_M_deleterEv
FNDA:68,_ZNSt10unique_ptrINSt7__cxx1112basic_stringIcSt11char_traitsIcESaIcEEESt14default_deleteIS5_EED2Ev
FNDA:1,_ZNSt10unique_ptrINSt7__cxx1118basic_stringstreamIcSt11char_traitsIcESaIcEEESt14default_deleteIS5_EED2Ev
FNDA:1,_ZNKSt10unique_ptrINSt7__cxx1112basic_stringIcSt11char_traitsIcESaIcEEESt14default_deleteIS5_EEptEv
FNDA:2,_ZNKSt10unique_ptrINSt7__cxx1112basic_stringIcSt11char_traitsIcESaIcEEESt14default_deleteIS5_EE3getEv
FNDA:1,_ZNSt10unique_ptrINSt7__cxx1112basic_stringIcSt11char_traitsIcESaIcEEESt14default_deleteIS5_EE11get_deleterEv
FNDA:1,_ZNSt10unique_ptrINSt7__cxx1118basic_stringstreamIcSt11char_traitsIcESaIcEEESt14default_deleteIS5_EE11get_deleterEv
FNDA:1,_ZNKSt10unique_ptrINSt7__cxx1112basic_stringIcSt11char_traitsIcESaIcEEESt14default_deleteIS5_EEcvbEv
FNDA:1,_ZSteqINSt7__cxx1112basic_stringIcSt11char_traitsIcESaIcEEESt14default_deleteIS5_EEbRKSt10unique_ptrIT_T0_EDn
FNDA:1,_ZNKSt14default_deleteINSt7__cxx1112basic_stringIcSt11char_traitsIcESaIcEEEEclEPS5_
FNDA:1,_ZNKSt14default_deleteINSt7__cxx1118basic_stringstreamIcSt11char_traitsIcESaIcEEEEclEPS5_
FNF:15
FNH:15
DA:93,2
DA:99,2
DA:100,2
DA:197,69
DA:199,2
DA:201,2
DA:398,69
DA:402,69
DA:403,69
DA:404,2
DA:405,69
DA:406,69
DA:460,1
DA:463,1
DA:469,2
DA:470,2
DA:475,2
DA:476,2
DA:486,1
DA:487,1
DA:837,1
DA:838,1
LF:22
LH:22
end_of_record
TN:
SF:/usr/include/c++/13/ext/alloc_traits.h
FNF:0
FNH:0
DA:98,64
LF:1
LH:1
end_of_record
TN:
SF:/usr/include/c++/13/iomanip
FN:197,198,_ZSt12setprecisioni
FNDA:0,_ZSt12setprecisioni
FNF:1
FNH:0
DA:197,0
DA:198,0
LF:2
LH:0
end_of_record
TN:
SF:/usr/include/c++/13/new
FN:174,175,_ZnwmPv
FNDA:0,_ZnwmPv
FNF:1
FNH:0
DA:174,0
DA:175,0
LF:2
LH:0
end_of_record
TN:
SF:/usr/include/c++/13/tuple
FN:125,125,_ZNSt10_Head_baseILm1ESt14default_deleteINSt7__cxx1112basic_stringIcSt11char_traitsIcESaIcEEEELb1EE7_M_headERS8_
FN:125,125,_ZNSt10_Head_baseILm1ESt14default_deleteINSt7__cxx1118basic_stringstreamIcSt11char_traitsIcESaIcEEEELb1EE7_M_headERS8_
FN:1787,1788,_ZSt12__get_helperILm0EPNSt7__cxx1112basic_stringIcSt11char_traitsIcESaIcEEEJSt14default_deleteIS5_EEERT0_RSt11_Tuple_implIXT_EJS9_DpT1_EE
FN:1787,1788,_ZSt12__get_helperILm0EPNSt7__cxx1118basic_stringstreamIcSt11char_traitsIcESaIcEEEJSt14default_deleteIS5_EEERT0_RSt11_Tuple_implIXT_EJS9_DpT1_EE
FN:1787,1788,_ZSt12__get_helperILm1ESt14default_deleteINSt7__cxx1112basic_stringIcSt11char_traitsIcESaIcEEEEJEERT0_RSt11_Tuple_implIXT_EJS8_DpT1_EE
FN:1787,1788,_ZSt12__get_helperILm1ESt14default_deleteINSt7__cxx1118basic_stringstreamIcSt11char_traitsIcESaIcEEEEJEERT0_RSt11_Tuple_implIXT_EJS8_DpT1_EE
FN:1792,1793,_ZSt12__get_helperILm0EPNSt7__cxx1112basic_stringIcSt11char_traitsIcESaIcEEEJSt14default_deleteIS5_EEERKT0_RKSt11_Tuple_implIXT_EJS9_DpT1_EE
FN:1803,1804,_ZSt3getILm0EJPNSt7__cxx1112basic_stringIcSt11char_traitsIcESaIcEEESt14default_deleteIS5_EEERNSt13tuple_elementIXT_ESt5tupleIJDpT0_EEE4typeERSD_
FN:1803,1804,_ZSt3getILm0EJPNSt7__cxx1118basic_stringstreamIcSt11char_traitsIcESaIcEEESt14default_deleteIS5_EEERNSt13tuple_elementIXT_ESt5tupleIJDpT0_EEE4typeERSD_
FN:1803,1804,_ZSt3getILm1EJPNSt7__cxx1112basic_stringIcSt11char_traitsIcESaIcEEESt14default_deleteIS5_EEERNSt13tuple_elementIXT_ESt5tupleIJDpT0_EEE4typeERSD_
FN:1803,1804,_ZSt3getILm1EJPNSt7__cxx1118basic_stringstreamIcSt11char_traitsIcESaIcEEESt14default_deleteIS5_EEERNSt13tuple_elementIXT_ESt5tupleIJDpT0_EEE4typeERSD_
FN:1809,1810,_ZSt3getILm0EJPNSt7__cxx1112basic_stringIcSt11char_traitsIcESaIcEEESt14default_deleteIS5_EEERKNSt13tuple_elementIXT_ESt5tupleIJDpT0_EEE4typeERKSD_
FN:234,234,_ZNSt10_Head_baseILm0EPNSt7__cxx1112basic_stringIcSt11char_traitsIcESaIcEEELb0EE7_M_headERS7_
FN:234,234,_ZNSt10_Head_baseILm0EPNSt7__cxx1118basic_stringstreamIcSt11char_traitsIcESaIcEEELb0EE7_M_headERS7_
FN:237,237,_ZNSt10_Head_baseILm0EPNSt7__cxx1112basic_stringIcSt11char_traitsIcESaIcEEELb0EE7_M_headERKS7_
FN:269,269,_ZNSt11_Tuple_implILm0EJPNSt7__cxx1112basic_stringIcSt11char_traitsIcESaIcEEESt14default_deleteIS5_EEE7_M_headERS9_
FN:269,269,_ZNSt11_Tuple_implILm0EJPNSt7__cxx1118basic_stringstreamIcSt11char_traitsIcESaIcEEESt14default_deleteIS5_EEE7_M_headERS9_
FN:272,272,_ZNSt11_Tuple_implILm0EJPNSt7__cxx1112basic_stringIcSt11char_traitsIcESaIcEEESt14default_deleteIS5_EEE7_M_headERKS9_
FN:497,497,_ZNSt11_Tuple_implILm1EJSt14default_deleteINSt7__cxx1112basic_stringIcSt11char_traitsIcESaIcEEEEEE7_M_headERS8_
FN:497,497,_ZNSt11_Tuple_implILm1EJSt14default_deleteINSt7__cxx1118basic_stringstreamIcSt11char_traitsIcESaIcEEEEEE7_M_headERS8_
FNDA:1,_ZNSt10_Head_baseILm1ESt14default_deleteINSt7__cxx1112basic_stringIcSt11char_traitsIcESaIcEEEELb1EE7_M_headERS8_
FNDA:1,_ZNSt10_Head_baseILm1ESt14default_deleteINSt7__cxx1118basic_stringstreamIcSt11char_traitsIcESaIcEEEELb1EE7_M_headERS8_
FNDA:68,_ZSt12__get_helperILm0EPNSt7__cxx1112basic_stringIcSt11char_traitsIcESaIcEEEJSt14default_deleteIS5_EEERT0_RSt11_Tuple_implIXT_EJS9_DpT1_EE
FNDA:1,_ZSt12__get_helperILm0EPNSt7__cxx1118basic_stringstreamIcSt11char_traitsIcESaIcEEEJSt14default_deleteIS5_EEERT0_RSt11_Tuple_implIXT_EJS9_DpT1_EE
FNDA:1,_ZSt12__get_helperILm1ESt14default_deleteINSt7__cxx1112basic_stringIcSt11char_traitsIcESaIcEEEEJEERT0_RSt11_Tuple_implIXT_EJS8_DpT1_EE
FNDA:1,_ZSt12__get_helperILm1ESt14default_deleteINSt7__cxx1118basic_stringstreamIcSt11char_traitsIcESaIcEEEEJEERT0_RSt11_Tuple_implIXT_EJS8_DpT1_EE
FNDA:2,_ZSt12__get_helperILm0EPNSt7__cxx1112basic_stringIcSt11char_traitsIcESaIcEEEJSt14default_deleteIS5_EEERKT0_RKSt11_Tuple_implIXT_EJS9_DpT1_EE
FNDA:68,_ZSt3getILm0EJPNSt7__cxx1112basic_stringIcSt11char_traitsIcESaIcEEESt14default_deleteIS5_EEERNSt13tuple_elementIXT_ESt5tupleIJDpT0_EEE4typeERSD_
FNDA:1,_ZSt3getILm0EJPNSt7__cxx1118basic_stringstreamIcSt11char_traitsIcESaIcEEESt14default_deleteIS5_EEERNSt13tuple_elementIXT_ESt5tupleIJDpT0_EEE4typeERSD_
FNDA:1,_ZSt3getILm1EJPNSt7__cxx1112basic_stringIcSt11char_traitsIcESaIcEEESt14default_deleteIS5_EEERNSt13tuple_elementIXT_ESt5tupleIJDpT0_EEE4typeERSD_
FNDA:1,_ZSt3getILm1EJPNSt7__cxx1118basic_stringstreamIcSt11char_traitsIcESaIcEEESt14default_deleteIS5_EEERNSt13tuple_elementIXT_ESt5tupleIJDpT0_EEE4typeERSD_
FNDA:2,_ZSt3getILm0EJPNSt7__cxx1112basic_stringIcSt11char_traitsIcESaIcEEESt14default_deleteIS5_EEERKNSt13tuple_elementIXT_ESt5tupleIJDpT0_EEE4typeERKSD_
FNDA:68,_ZNSt10_Head_baseILm0EPNSt7__cxx1112basic_stringIcSt11char_traitsIcESaIcEEELb0EE7_M_headERS7_
FNDA:1,_ZNSt10_Head_baseILm0EPNSt7__cxx1118basic_stringstreamIcSt11char_traitsIcESaIcEEELb0EE7_M_headERS7_
FNDA:2,_ZNSt10_Head_baseILm0EPNSt7__cxx1112basic_stringIcSt11char_traitsIcESaIcEEELb0EE7_M_headERKS7_
FNDA:68,_ZNSt11_Tuple_implILm0EJPNSt7__cxx1112basic_stringIcSt11char_traitsIcESaIcEEESt14default_deleteIS5_EEE7_M_headERS9_
FNDA:1,_ZNSt11_Tuple_implILm0EJPNSt7__cxx1118basic_stringstreamIcSt11char_traitsIcESaIcEEESt14default_deleteIS5_EEE7_M_headERS9_
FNDA:2,_ZNSt11_Tuple_implILm0EJPNSt7__cxx1112basic_stringIcSt11char_traitsIcESaIcEEESt14default_deleteIS5_EEE7_M_headERKS9_
FNDA:1,_ZNSt11_Tuple_implILm1EJSt14default_deleteINSt7__cxx1112basic_stringIcSt11char_traitsIcESaIcEEEEEE7_M_headERS8_
FNDA:1,_ZNSt11_Tuple_implILm1EJSt14default_deleteINSt7__cxx1118basic_stringstreamIcSt11char_traitsIcESaIcEEEEEE7_M_headERS8_
FNF:20
FNH:20
DA:125,2
DA:234,69
DA:237,2
DA:269,69
DA:272,2
DA:497,2
DA:1787,71
DA:1788,71
DA:1792,2
DA:1793,2
DA:1803,71
DA:1804,71
DA:1809,2
DA:1810,2
LF:14
LH:14
end_of_record
TN:
SF:/usr/include/c++/13/type_traits
FN:3649,3656,_ZSt21is_constant_evaluatedv
FNDA:0,_ZSt21is_constant_evaluatedv
FNF:1
FNH:0
DA:3649,0
DA:3654,0
LF:2
LH:0
end_of_record
TN:
SF:/usr/include/gtest/gtest-assertion-result.h
FN:174,174,_ZNK7testing15AssertionResultcvbEv
FN:183,185,_ZNK7testing15AssertionResult7messageEv
FN:187,187,_ZNK7testing15AssertionResult15failure_messageEv
FNDA:68,_ZNK7testing15AssertionResultcvbEv
FNDA:1,_ZNK7testing15AssertionResult7messageEv
FNDA:1,_ZNK7testing15AssertionResult15failure_messageEv
FNF:3
FNH:3
DA:174,68
DA:183,1
DA:184,1
DA:187,1
LF:4
LH:4
end_of_record
TN:
SF:/usr/include/gtest/gtest-message.h
FNF:0
FNH:0
LF:0
LH:0
end_of_record
TN:
SF:/usr/include/gtest/gtest-printers.h
FN:1108,1113,_ZN7testing8internal14UniversalPrintIP12pausingStateEEvRKT_PSo
FN:1108,1113,_ZN7testing8internal14UniversalPrintIP12primingStateEEvRKT_PSo
FN:1108,1113,_ZN7testing8internal14UniversalPrintIP13completeStateEEvRKT_PSo
FN:1108,1113,_ZN7testing8internal14UniversalPrintIP13infusingStateEEvRKT_PSo
FN:1108,1113,_ZN7testing8internal14UniversalPrintIP14occlusionStateEEvRKT_PSo
FN:1108,1113,_ZN7testing8internal14UniversalPrintIP9idleStateEEvRKT_PSo
FN:1108,1113,_ZN7testing8internal14UniversalPrintIP9pumpStateEEvRKT_PSo
FN:1108,1113,_ZN7testing8internal14UniversalPrintIiEEvRKT_PSo
FN:1108,1113,_ZN7testing8internal14UniversalPrintItEEvRKT_PSo
FN:1148,1152,_ZN7testing13PrintToStringIP12pausingStateEENSt7__cxx1112basic_stringIcSt11char_traitsIcESaIcEEERKT_
FN:1148,1152,_ZN7testing13PrintToStringIP12primingStateEENSt7__cxx1112basic_stringIcSt11char_traitsIcESaIcEEERKT_
FN:1148,1152,_ZN7testing13PrintToStringIP13completeStateEENSt7__cxx1112basic_stringIcSt11char_traitsIcESaIcEEERKT_
FN:1148,1152,_ZN7testing13PrintToStringIP13infusingStateEENSt7__cxx1112basic_stringIcSt11char_traitsIcESaIcEEERKT_
FN:1148,1152,_ZN7testing13PrintToStringIP14occlusionStateEENSt7__cxx1112basic_stringIcSt11char_traitsIcESaIcEEERKT_
FN:1148,1152,_ZN7testing13PrintToStringIP9idleStateEENSt7__cxx1112basic_stringIcSt11char_traitsIcESaIcEEERKT_
FN:1148,1152,_ZN7testing13PrintToStringIP9pumpStateEENSt7__cxx1112basic_stringIcSt11char_traitsIcESaIcEEERKT_
FN:1148,1152,_ZN7testing13PrintToStringIiEENSt7__cxx1112basic_stringIcSt11char_traitsIcESaIcEEERKT_
FN:1148,1152,_ZN7testing13PrintToStringItEENSt7__cxx1112basic_stringIcSt11char_traitsIcESaIcEEERKT_
FN:190,199,_ZN7testing8internal14PointerPrinter10PrintValueI12pausingStateEEvPT_PSo
FN:190,199,_ZN7testing8internal14PointerPrinter10PrintValueI12primingStateEEvPT_PSo
FN:190,199,_ZN7testing8internal14PointerPrinter10PrintValueI13completeStateEEvPT_PSo
FN:190,199,_ZN7testing8internal14PointerPrinter10PrintValueI13infusingStateEEvPT_PSo
FN:190,199,_ZN7testing8internal14PointerPrinter10PrintValueI14occlusionStateEEvPT_PSo
FN:190,199,_ZN7testing8internal14PointerPrinter10PrintValueI9idleStateEEvPT_PSo
FN:190,199,_ZN7testing8internal14PointerPrinter10PrintValueI9pumpStateEEvPT_PSo
FN:221,226,_ZN7testing8internal52internal_stream_operator_without_lexical_name_lookup13StreamPrinter10PrintValueIivEEDTcvvlsdefp0_fp_ERKT_PSo
FN:221,226,_ZN7testing8internal52internal_stream_operator_without_lexical_name_lookup13StreamPrinter10PrintValueItvEEDTcvvlsdefp0_fp_ERKT_PSo
FN:326,337,_ZN7testing8internal17PrintWithFallbackIP12pausingStateEEvRKT_PSo
FN:326,337,_ZN7testing8internal17PrintWithFallbackIP12primingStateEEvRKT_PSo
FN:326,337,_ZN7testing8internal17PrintWithFallbackIP13completeStateEEvRKT_PSo
FN:326,337,_ZN7testing8internal17PrintWithFallbackIP13infusingStateEEvRKT_PSo
FN:326,337,_ZN7testing8internal17PrintWithFallbackIP14occlusionStateEEvRKT_PSo
FN:326,337,_ZN7testing8internal17PrintWithFallbackIP9idleStateEEvRKT_PSo
FN:326,337,_ZN7testing8internal17PrintWithFallbackIP9pumpStateEEvRKT_PSo
FN:326,337,_ZN7testing8internal17PrintWithFallbackIiEEvRKT_PSo
FN:326,337,_ZN7testing8internal17PrintWithFallbackItEEvRKT_PSo
FN:357,359,_ZN7testing8internal19FormatForComparisonIP12pausingStateP9pumpStateE6FormatB5cxx11ERKS3_
FN:357,359,_ZN7testing8internal19FormatForComparisonIP12primingStateP9pumpStateE6FormatB5cxx11ERKS3_
FN:357,359,_ZN7testing8internal19FormatForComparisonIP13completeStateP9pumpStateE6FormatB5cxx11ERKS3_
FN:357,359,_ZN7testing8internal19FormatForComparisonIP13infusingStateP9pumpStateE6FormatB5cxx11ERKS3_
FN:357,359,_ZN7testing8internal19FormatForComparisonIP14occlusionStateP9pumpStateE6FormatB5cxx11ERKS3_
FN:357,359,_ZN7testing8internal19FormatForComparisonIP9idleStateP9pumpStateE6FormatB5cxx11ERKS3_
FN:357,359,_ZN7testing8internal19FormatForComparisonIP9pumpStateP12pausingStateE6FormatB5cxx11ERKS3_
FN:357,359,_ZN7testing8internal19FormatForComparisonIP9pumpStateP12primingStateE6FormatB5cxx11ERKS3_
FN:357,359,_ZN7testing8internal19FormatForComparisonIP9pumpStateP13completeStateE6FormatB5cxx11ERKS3_
FN:357,359,_ZN7testing8internal19FormatForComparisonIP9pumpStateP13infusingStateE6FormatB5cxx11ERKS3_
FN:357,359,_ZN7testing8internal19FormatForComparisonIP9pumpStateP14occlusionStateE6FormatB5cxx11ERKS3_
FN:357,359,_ZN7testing8internal19FormatForComparisonIP9pumpStateP9idleStateE6FormatB5cxx11ERKS3_
FN:357,359,_ZN7testing8internal19FormatForComparisonIitE6FormatB5cxx11ERKi
FN:357,359,_ZN7testing8internal19FormatForComparisonItiE6FormatB5cxx11ERKt
FN:437,440,_ZN7testing8internal33FormatForComparisonFailureMessageIP12pausingStateP9pumpStateEENSt7__cxx1112basic_stringIcSt11char_traitsIcESaIcEEERKT_RKT0_
FN:437,440,_ZN7testing8internal33FormatForComparisonFailureMessageIP12primingStateP9pumpStateEENSt7__cxx1112basic_stringIcSt11char_traitsIcESaIcEEERKT_RKT0_
FN:437,440,_ZN7testing8internal33FormatForComparisonFailureMessageIP13completeStateP9pumpStateEENSt7__cxx1112basic_stringIcSt11char_traitsIcESaIcEEERKT_RKT0_
FN:437,440,_ZN7testing8internal33FormatForComparisonFailureMessageIP13infusingStateP9pumpStateEENSt7__cxx1112basic_stringIcSt11char_traitsIcESaIcEEERKT_RKT0_
FN:437,440,_ZN7testing8internal33FormatForComparisonFailureMessageIP14occlusionStateP9pumpStateEENSt7__cxx1112basic_stringIcSt11char_traitsIcESaIcEEERKT_RKT0_
FN:437,440,_ZN7testing8internal33FormatForComparisonFailureMessageIP9idleStateP9pumpStateEENSt7__cxx1112basic_stringIcSt11char_traitsIcESaIcEEERKT_RKT0_
FN:437,440,_ZN7testing8internal33FormatForComparisonFailureMessageIP9pumpStateP12pausingStateEENSt7__cxx1112basic_stringIcSt11char_traitsIcESaIcEEERKT_RKT0_
FN:437,440,_ZN7testing8internal33FormatForComparisonFailureMessageIP9pumpStateP12primingStateEENSt7__cxx1112basic_stringIcSt11char_traitsIcESaIcEEERKT_RKT0_
FN:437,440,_ZN7testing8internal33FormatForComparisonFailureMessageIP9pumpStateP13completeStateEENSt7__cxx1112basic_stringIcSt11char_traitsIcESaIcEEERKT_RKT0_
FN:437,440,_ZN7testing8internal33FormatForComparisonFailureMessageIP9pumpStateP13infusingStateEENSt7__cxx1112basic_stringIcSt11char_traitsIcESaIcEEERKT_RKT0_
FN:437,440,_ZN7testing8internal33FormatForComparisonFailureMessageIP9pumpStateP14occlusionStateEENSt7__cxx1112basic_stringIcSt11char_traitsIcESaIcEEERKT_RKT0_
FN:437,440,_ZN7testing8internal33FormatForComparisonFailureMessageIP9pumpStateP9idleStateEENSt7__cxx1112basic_stringIcSt11char_traitsIcESaIcEEERKT_RKT0_
FN:437,440,_ZN7testing8internal33FormatForComparisonFailureMessageIitEENSt7__cxx1112basic_stringIcSt11char_traitsIcESaIcEEERKT_RKT0_
FN:437,440,_ZN7testing8internal33FormatForComparisonFailureMessageItiEENSt7__cxx1112basic_stringIcSt11char_traitsIcESaIcEEERKT_RKT0_
FN:464,466,_ZN7testing8internal7PrintToIP12pausingStateEEvRKT_PSo
FN:464,466,_ZN7testing8internal7PrintToIP12primingStateEEvRKT_PSo
FN:464,466,_ZN7testing8internal7PrintToIP13completeStateEEvRKT_PSo
FN:464,466,_ZN7testing8internal7PrintToIP13infusingStateEEvRKT_PSo
FN:464,466,_ZN7testing8internal7PrintToIP14occlusionStateEEvRKT_PSo
FN:464,466,_ZN7testing8internal7PrintToIP9idleStateEEvRKT_PSo
FN:464,466,_ZN7testing8internal7PrintToIP9pumpStateEEvRKT_PSo
FN:464,466,_ZN7testing8internal7PrintToIiEEvRKT_PSo
FN:464,466,_ZN7testing8internal7PrintToItEEvRKT_PSo
FN:799,809,_ZN7testing8internal16UniversalPrinterIP12pausingStateE5PrintERKS3_PSo
FN:799,809,_ZN7testing8internal16UniversalPrinterIP12primingStateE5PrintERKS3_PSo
FN:799,809,_ZN7testing8internal16UniversalPrinterIP13completeStateE5PrintERKS3_PSo
FN:799,809,_ZN7testing8internal16UniversalPrinterIP13infusingStateE5PrintERKS3_PSo
FN:799,809,_ZN7testing8internal16UniversalPrinterIP14occlusionStateE5PrintERKS3_PSo
FN:799,809,_ZN7testing8internal16UniversalPrinterIP9idleStateE5PrintERKS3_PSo
FN:799,809,_ZN7testing8internal16UniversalPrinterIP9pumpStateE5PrintERKS3_PSo
FN:799,809,_ZN7testing8internal16UniversalPrinterIiE5PrintERKiPSo
FN:799,809,_ZN7testing8internal16UniversalPrinterItE5PrintERKtPSo
FN:989,991,_ZN7testing8internal21UniversalTersePrinterIP12pausingStateE5PrintERKS3_PSo
FN:989,991,_ZN7testing8internal21UniversalTersePrinterIP12primingStateE5PrintERKS3_PSo
FN:989,991,_ZN7testing8internal21UniversalTersePrinterIP13completeStateE5PrintERKS3_PSo
FN:989,991,_ZN7testing8internal21UniversalTersePrinterIP13infusingStateE5PrintERKS3_PSo
FN:989,991,_ZN7testing8internal21UniversalTersePrinterIP14occlusionStateE5PrintERKS3_PSo
FN:989,991,_ZN7testing8internal21UniversalTersePrinterIP9idleStateE5PrintERKS3_PSo
FN:989,991,_ZN7testing8internal21UniversalTersePrinterIP9pumpStateE5PrintERKS3_PSo
FN:989,991,_ZN7testing8internal21UniversalTersePrinterIiE5PrintERKiPSo
FN:989,991,_ZN7testing8internal21UniversalTersePrinterItE5PrintERKtPSo
FNDA:0,_ZN7testing8internal14UniversalPrintIP12pausingStateEEvRKT_PSo
FNDA:0,_ZN7testing8internal14UniversalPrintIP12primingStateEEvRKT_PSo
FNDA:0,_ZN7testing8internal14UniversalPrintIP13completeStateEEvRKT_PSo
FNDA:0,_ZN7testing8internal14UniversalPrintIP13infusingStateEEvRKT_PSo
FNDA:0,_ZN7testing8internal14UniversalPrintIP14occlusionStateEEvRKT_PSo
FNDA:0,_ZN7testing8internal14UniversalPrintIP9idleStateEEvRKT_PSo
FNDA:0,_ZN7testing8internal14UniversalPrintIP9pumpStateEEvRKT_PSo
FNDA:1,_ZN7testing8internal14UniversalPrintIiEEvRKT_PSo
FNDA:1,_ZN7testing8internal14UniversalPrintItEEvRKT_PSo
FNDA:0,_ZN7testing13PrintToStringIP12pausingStateEENSt7__cxx1112basic_stringIcSt11char_traitsIcESaIcEEERKT_
FNDA:0,_ZN7testing13PrintToStringIP12primingStateEENSt7__cxx1112basic_stringIcSt11char_traitsIcESaIcEEERKT_
FNDA:0,_ZN7testing13PrintToStringIP13completeStateEENSt7__cxx1112basic_stringIcSt11char_traitsIcESaIcEEERKT_
FNDA:0,_ZN7testing13PrintToStringIP13infusingStateEENSt7__cxx1112basic_stringIcSt11char_traitsIcESaIcEEERKT_
FNDA:0,_ZN7testing13PrintToStringIP14occlusionStateEENSt7__cxx1112basic_stringIcSt11char_traitsIcESaIcEEERKT_
FNDA:0,_ZN7testing13PrintToStringIP9idleStateEENSt7__cxx1112basic_stringIcSt11char_traitsIcESaIcEEERKT_
FNDA:0,_ZN7testing13PrintToStringIP9pumpStateEENSt7__cxx1112basic_stringIcSt11char_traitsIcESaIcEEERKT_
FNDA:1,_ZN7testing13PrintToStringIiEENSt7__cxx1112basic_stringIcSt11char_traitsIcESaIcEEERKT_
FNDA:1,_ZN7testing13PrintToStringItEENSt7__cxx1112basic_stringIcSt11char_traitsIcESaIcEEERKT_
FNDA:0,_ZN7testing8internal14PointerPrinter10PrintValueI12pausingStateEEvPT_PSo
FNDA:0,_ZN7testing8internal14PointerPrinter10PrintValueI12primingStateEEvPT_PSo
FNDA:0,_ZN7testing8internal14PointerPrinter10PrintValueI13completeStateEEvPT_PSo
FNDA:0,_ZN7testing8internal14PointerPrinter10PrintValueI13infusingStateEEvPT_PSo
FNDA:0,_ZN7testing8internal14PointerPrinter10PrintValueI14occlusionStateEEvPT_PSo
FNDA:0,_ZN7testing8internal14PointerPrinter10PrintValueI9idleStateEEvPT_PSo
FNDA:0,_ZN7testing8internal14PointerPrinter10PrintValueI9pumpStateEEvPT_PSo
FNDA:1,_ZN7testing8internal52internal_stream_operator_without_lexical_name_lookup13StreamPrinter10PrintValueIivEEDTcvvlsdefp0_fp_ERKT_PSo
FNDA:1,_ZN7testing8internal52internal_stream_operator_without_lexical_name_lookup13StreamPrinter10PrintValueItvEEDTcvvlsdefp0_fp_ERKT_PSo
FNDA:0,_ZN7testing8internal17PrintWithFallbackIP12pausingStateEEvRKT_PSo
FNDA:0,_ZN7testing8internal17PrintWithFallbackIP12primingStateEEvRKT_PSo
FNDA:0,_ZN7testing8internal17PrintWithFallbackIP13completeStateEEvRKT_PSo
FNDA:0,_ZN7testing8internal17PrintWithFallbackIP13infusingStateEEvRKT_PSo
FNDA:0,_ZN7testing8internal17PrintWithFallbackIP14occlusionStateEEvRKT_PSo
FNDA:0,_ZN7testing8internal17PrintWithFallbackIP9idleStateEEvRKT_PSo
FNDA:0,_ZN7testing8internal17PrintWithFallbackIP9pumpStateEEvRKT_PSo
FNDA:1,_ZN7testing8internal17PrintWithFallbackIiEEvRKT_PSo
FNDA:1,_ZN7testing8internal17PrintWithFallbackItEEvRKT_PSo
FNDA:0,_ZN7testing8internal19FormatForComparisonIP12pausingStateP9pumpStateE6FormatB5cxx11ERKS3_
FNDA:0,_ZN7testing8internal19FormatForComparisonIP12primingStateP9pumpStateE6FormatB5cxx11ERKS3_
FNDA:0,_ZN7testing8internal19FormatForComparisonIP13completeStateP9pumpStateE6FormatB5cxx11ERKS3_
FNDA:0,_ZN7testing8internal19FormatForComparisonIP13infusingStateP9pumpStateE6FormatB5cxx11ERKS3_
FNDA:0,_ZN7testing8internal19FormatForComparisonIP14occlusionStateP9pumpStateE6FormatB5cxx11ERKS3_
FNDA:0,_ZN7testing8internal19FormatForComparisonIP9idleStateP9pumpStateE6FormatB5cxx11ERKS3_
FNDA:0,_ZN7testing8internal19FormatForComparisonIP9pumpStateP12pausingStateE6FormatB5cxx11ERKS3_
FNDA:0,_ZN7testing8internal19FormatForComparisonIP9pumpStateP12primingStateE6FormatB5cxx11ERKS3_
FNDA:0,_ZN7testing8internal19FormatForComparisonIP9pumpStateP13completeStateE6FormatB5cxx11ERKS3_
FNDA:0,_ZN7testing8internal19FormatForComparisonIP9pumpStateP13infusingStateE6FormatB5cxx11ERKS3_
FNDA:0,_ZN7testing8internal19FormatForComparisonIP9pumpStateP14occlusionStateE6FormatB5cxx11ERKS3_
FNDA:0,_ZN7testing8internal19FormatForComparisonIP9pumpStateP9idleStateE6FormatB5cxx11ERKS3_
FNDA:1,_ZN7testing8internal19FormatForComparisonIitE6FormatB5cxx11ERKi
FNDA:1,_ZN7testing8internal19FormatForComparisonItiE6FormatB5cxx11ERKt
FNDA:0,_ZN7testing8internal33FormatForComparisonFailureMessageIP12pausingStateP9pumpStateEENSt7__cxx1112basic_stringIcSt11char_traitsIcESaIcEEERKT_RKT0_
FNDA:0,_ZN7testing8internal33FormatForComparisonFailureMessageIP12primingStateP9pumpStateEENSt7__cxx1112basic_stringIcSt11char_traitsIcESaIcEEERKT_RKT0_
FNDA:0,_ZN7testing8internal33FormatForComparisonFailureMessageIP13completeStateP9pumpStateEENSt7__cxx1112basic_stringIcSt11char_traitsIcESaIcEEERKT_RKT0_
FNDA:0,_ZN7testing8internal33FormatForComparisonFailureMessageIP13infusingStateP9pumpStateEENSt7__cxx1112basic_stringIcSt11char_traitsIcESaIcEEERKT_RKT0_
FNDA:0,_ZN7testing8internal33FormatForComparisonFailureMessageIP14occlusionStateP9pumpStateEENSt7__cxx1112basic_stringIcSt11char_traitsIcESaIcEEERKT_RKT0_
FNDA:0,_ZN7testing8internal33FormatForComparisonFailureMessageIP9idleStateP9pumpStateEENSt7__cxx1112basic_stringIcSt11char_traitsIcESaIcEEERKT_RKT0_
FNDA:0,_ZN7testing8internal33FormatForComparisonFailureMessageIP9pumpStateP12pausingStateEENSt7__cxx1112basic_stringIcSt11char_traitsIcESaIcEEERKT_RKT0_
FNDA:0,_ZN7testing8internal33FormatForComparisonFailureMessageIP9pumpStateP12primingStateEENSt7__cxx1112basic_stringIcSt11char_traitsIcESaIcEEERKT_RKT0_
FNDA:0,_ZN7testing8internal33FormatForComparisonFailureMessageIP9pumpStateP13completeStateEENSt7__cxx1112basic_stringIcSt11char_traitsIcESaIcEEERKT_RKT0_
FNDA:0,_ZN7testing8internal33FormatForComparisonFailureMessageIP9pumpStateP13infusingStateEENSt7__cxx1112basic_stringIcSt11char_traitsIcESaIcEEERKT_RKT0_
FNDA:0,_ZN7testing8internal33FormatForComparisonFailureMessageIP9pumpStateP14occlusionStateEENSt7__cxx1112basic_stringIcSt11char_traitsIcESaIcEEERKT_RKT0_
FNDA:0,_ZN7testing8internal33FormatForComparisonFailureMessageIP9pumpStateP9idleStateEENSt7__cxx1112basic_stringIcSt11char_traitsIcESaIcEEERKT_RKT0_
FNDA:1,_ZN7testing8internal33FormatForComparisonFailureMessageIitEENSt7__cxx1112basic_stringIcSt11char_traitsIcESaIcEEERKT_RKT0_
FNDA:1,_ZN7testing8internal33FormatForComparisonFailureMessageItiEENSt7__cxx1112basic_stringIcSt11char_traitsIcESaIcEEERKT_RKT0_
FNDA:0,_ZN7testing8internal7PrintToIP12pausingStateEEvRKT_PSo
FNDA:0,_ZN7testing8internal7PrintToIP12primingStateEEvRKT_PSo
FNDA:0,_ZN7testing8internal7PrintToIP13completeStateEEvRKT_PSo
FNDA:0,_ZN7testing8internal7PrintToIP13infusingStateEEvRKT_PSo
FNDA:0,_ZN7testing8internal7PrintToIP14occlusionStateEEvRKT_PSo
FNDA:0,_ZN7testing8internal7PrintToIP9idleStateEEvRKT_PSo
FNDA:0,_ZN7testing8internal7PrintToIP9pumpStateEEvRKT_PSo
FNDA:1,_ZN7testing8internal7PrintToIiEEvRKT_PSo
FNDA:1,_ZN7testing8internal7PrintToItEEvRKT_PSo
FNDA:0,_ZN7testing8internal16UniversalPrinterIP12pausingStateE5PrintERKS3_PSo
FNDA:0,_ZN7testing8internal16UniversalPrinterIP12primingStateE5PrintERKS3_PSo
FNDA:0,_ZN7testing8internal16UniversalPrinterIP13completeStateE5PrintERKS3_PSo
FNDA:0,_ZN7testing8internal16UniversalPrinterIP13infusingStateE5PrintERKS3_PSo
FNDA:0,_ZN7testing8internal16UniversalPrinterIP14occlusionStateE5PrintERKS3_PSo
FNDA:0,_ZN7testing8internal16UniversalPrinterIP9idleStateE5PrintERKS3_PSo
FNDA:0,_ZN7testing8internal16UniversalPrinterIP9pumpStateE5PrintERKS3_PSo
FNDA:1,_ZN7testing8internal16UniversalPrinterIiE5PrintERKiPSo
FNDA:1,_ZN7testing8internal16UniversalPrinterItE5PrintERKtPSo
FNDA:0,_ZN7testing8internal21UniversalTersePrinterIP12pausingStateE5PrintERKS3_PSo
FNDA:0,_ZN7testing8internal21UniversalTersePrinterIP12primingStateE5PrintERKS3_PSo
FNDA:0,_ZN7testing8internal21UniversalTersePrinterIP13completeStateE5PrintERKS3_PSo
FNDA:0,_ZN7testing8internal21UniversalTersePrinterIP13infusingStateE5PrintERKS3_PSo
FNDA:0,_ZN7testing8internal21UniversalTersePrinterIP14occlusionStateE5PrintERKS3_PSo
FNDA:0,_ZN7testing8internal21UniversalTersePrinterIP9idleStateE5PrintERKS3_PSo
FNDA:0,_ZN7testing8internal21UniversalTersePrinterIP9pumpStateE5PrintERKS3_PSo
FNDA:1,_ZN7testing8internal21UniversalTersePrinterIiE5PrintERKiPSo
FNDA:1,_ZN7testing8internal21UniversalTersePrinterItE5PrintERKtPSo
FNF:91
FNH:18
DA:190,0
DA:191,0
DA:192,0
DA:197,0
DA:199,0
DA:221,2
DA:225,2
DA:226,2
DA:326,2
DA:336,2
DA:337,2
DA:357,2
DA:358,2
DA:437,2
DA:439,2
DA:464,2
DA:465,2
DA:466,2
DA:799,2
DA:808,2
DA:809,2
DA:989,2
DA:990,2
DA:991,2
DA:1108,2
DA:1112,2
DA:1113,2
DA:1148,2
DA:1149,2
DA:1150,2
DA:1151,4
DA:1152,2
LF:32
LH:27
end_of_record
TN:
SF:/usr/include/gtest/gtest.h
FN:1359,1365,_ZN7testing8internal18CmpHelperEQFailureIP9pumpStateP12pausingStateEENS_15AssertionResultEPKcS8_RKT_RKT0_
FN:1359,1365,_ZN7testing8internal18CmpHelperEQFailureIP9pumpStateP12primingStateEENS_15AssertionResultEPKcS8_RKT_RKT0_
FN:1359,1365,_ZN7testing8internal18CmpHelperEQFailureIP9pumpStateP13completeStateEENS_15AssertionResultEPKcS8_RKT_RKT0_
FN:1359,1365,_ZN7testing8internal18CmpHelperEQFailureIP9pumpStateP13infusingStateEENS_15AssertionResultEPKcS8_RKT_RKT0_
FN:1359,1365,_ZN7testing8internal18CmpHelperEQFailureIP9pumpStateP14occlusionStateEENS_15AssertionResultEPKcS8_RKT_RKT0_
FN:1359,1365,_ZN7testing8internal18CmpHelperEQFailureIP9pumpStateP9idleStateEENS_15AssertionResultEPKcS8_RKT_RKT0_
FN:1359,1365,_ZN7testing8internal18CmpHelperEQFailureItiEENS_15AssertionResultEPKcS4_RKT_RKT0_
FN:1376,1384,_ZN7testing8internal11CmpHelperEQIP9pumpStateP12pausingStateEENS_15AssertionResultEPKcS8_RKT_RKT0_
FN:1376,1384,_ZN7testing8internal11CmpHelperEQIP9pumpStateP12primingStateEENS_15AssertionResultEPKcS8_RKT_RKT0_
FN:1376,1384,_ZN7testing8internal11CmpHelperEQIP9pumpStateP13completeStateEENS_15AssertionResultEPKcS8_RKT_RKT0_
FN:1376,1384,_ZN7testing8internal11CmpHelperEQIP9pumpStateP13infusingStateEENS_15AssertionResultEPKcS8_RKT_RKT0_
FN:1376,1384,_ZN7testing8internal11CmpHelperEQIP9pumpStateP14occlusionStateEENS_15AssertionResultEPKcS8_RKT_RKT0_
FN:1376,1384,_ZN7testing8internal11CmpHelperEQIP9pumpStateP9idleStateEENS_15AssertionResultEPKcS8_RKT_RKT0_
FN:1376,1384,_ZN7testing8internal11CmpHelperEQItiEENS_15AssertionResultEPKcS4_RKT_RKT0_
FN:1395,1399,_ZN7testing8internal8EqHelper7CompareIP9pumpStateP12pausingStateLPv0EEENS_15AssertionResultEPKcSA_RKT_RKT0_
FN:1395,1399,_ZN7testing8internal8EqHelper7CompareIP9pumpStateP12primingStateLPv0EEENS_15AssertionResultEPKcSA_RKT_RKT0_
FN:1395,1399,_ZN7testing8internal8EqHelper7CompareIP9pumpStateP13completeStateLPv0EEENS_15AssertionResultEPKcSA_RKT_RKT0_
FN:1395,1399,_ZN7testing8internal8EqHelper7CompareIP9pumpStateP13infusingStateLPv0EEENS_15AssertionResultEPKcSA_RKT_RKT0_
FN:1395,1399,_ZN7testing8internal8EqHelper7CompareIP9pumpStateP14occlusionStateLPv0EEENS_15AssertionResultEPKcSA_RKT_RKT0_
FN:1395,1399,_ZN7testing8internal8EqHelper7CompareIP9pumpStateP9idleStateLPv0EEENS_15AssertionResultEPKcSA_RKT_RKT0_
FN:1395,1399,_ZN7testing8internal8EqHelper7CompareItiLPv0EEENS_15AssertionResultEPKcS6_RKT_RKT0_
FN:1567,1587,_ZN7testing8internal24CmpHelperFloatingPointEQIfEENS_15AssertionResultEPKcS4_T_S5_
FN:2317,2317,_Z13RUN_ALL_TESTSv
FN:256,256,_ZN7testing4Test14SetUpTestSuiteEv
FN:264,264,_ZN7testing4Test17TearDownTestSuiteEv
FN:269,269,_ZN7testing4Test16TearDownTestCaseEv
FN:270,270,_ZN7testing4Test13SetUpTestCaseEv
FN:357,357,_ZN7testing4Test5SetupEv
FNDA:0,_ZN7testing8internal18CmpHelperEQFailureIP9pumpStateP12pausingStateEENS_15AssertionResultEPKcS8_RKT_RKT0_
FNDA:0,_ZN7testing8internal18CmpHelperEQFailureIP9pumpStateP12primingStateEENS_15AssertionResultEPKcS8_RKT_RKT0_
FNDA:0,_ZN7testing8internal18CmpHelperEQFailureIP9pumpStateP13completeStateEENS_15AssertionResultEPKcS8_RKT_RKT0_
FNDA:0,_ZN7testing8internal18CmpHelperEQFailureIP9pumpStateP13infusingStateEENS_15AssertionResultEPKcS8_RKT_RKT0_
FNDA:0,_ZN7testing8internal18CmpHelperEQFailureIP9pumpStateP14occlusionStateEENS_15AssertionResultEPKcS8_RKT_RKT0_
FNDA:0,_ZN7testing8internal18CmpHelperEQFailureIP9pumpStateP9idleStateEENS_15AssertionResultEPKcS8_RKT_RKT0_
FNDA:1,_ZN7testing8internal18CmpHelperEQFailureItiEENS_15AssertionResultEPKcS4_RKT_RKT0_
FNDA:6,_ZN7testing8internal11CmpHelperEQIP9pumpStateP12pausingStateEENS_15AssertionResultEPKcS8_RKT_RKT0_
FNDA:7,_ZN7testing8internal11CmpHelperEQIP9pumpStateP12primingStateEENS_15AssertionResultEPKcS8_RKT_RKT0_
FNDA:6,_ZN7testing8internal11CmpHelperEQIP9pumpStateP13completeStateEENS_15AssertionResultEPKcS8_RKT_RKT0_
FNDA:5,_ZN7testing8internal11CmpHelperEQIP9pumpStateP13infusingStateEENS_15AssertionResultEPKcS8_RKT_RKT0_
FNDA:7,_ZN7testing8internal11CmpHelperEQIP9pumpStateP14occlusionStateEENS_15AssertionResultEPKcS8_RKT_RKT0_
FNDA:14,_ZN7testing8internal11CmpHelperEQIP9pumpStateP9idleStateEENS_15AssertionResultEPKcS8_RKT_RKT0_
FNDA:16,_ZN7testing8internal11CmpHelperEQItiEENS_15AssertionResultEPKcS4_RKT_RKT0_
FNDA:6,_ZN7testing8internal8EqHelper7CompareIP9pumpStateP12pausingStateLPv0EEENS_15AssertionResultEPKcSA_RKT_RKT0_
FNDA:7,_ZN7testing8internal8EqHelper7CompareIP9pumpStateP12primingStateLPv0EEENS_15AssertionResultEPKcSA_RKT_RKT0_
FNDA:6,_ZN7testing8internal8EqHelper7CompareIP9pumpStateP13completeStateLPv0EEENS_15AssertionResultEPKcSA_RKT_RKT0_
FNDA:5,_ZN7testing8internal8EqHelper7CompareIP9pumpStateP13infusingStateLPv0EEENS_15AssertionResultEPKcSA_RKT_RKT0_
FNDA:7,_ZN7testing8internal8EqHelper7CompareIP9pumpStateP14occlusionStateLPv0EEENS_15AssertionResultEPKcSA_RKT_RKT0_
FNDA:14,_ZN7testing8internal8EqHelper7CompareIP9pumpStateP9idleStateLPv0EEENS_15AssertionResultEPKcSA_RKT_RKT0_
FNDA:16,_ZN7testing8internal8EqHelper7CompareItiLPv0EEENS_15AssertionResultEPKcS6_RKT_RKT0_
FNDA:7,_ZN7testing8internal24CmpHelperFloatingPointEQIfEENS_15AssertionResultEPKcS4_T_S5_
FNDA:8,_Z13RUN_ALL_TESTSv
FNDA:0,_ZN7testing4Test14SetUpTestSuiteEv
FNDA:0,_ZN7testing4Test17TearDownTestSuiteEv
FNDA:0,_ZN7testing4Test16TearDownTestCaseEv
FNDA:0,_ZN7testing4Test13SetUpTestCaseEv
FNDA:0,_ZN7testing4Test5SetupEv
FNF:28
FNH:17
DA:256,0
DA:264,0
DA:269,0
DA:270,0
DA:357,0
DA:1359,1
DA:1364,1
DA:1376,61
DA:1379,61
DA:1380,60
DA:1383,1
DA:1395,61
DA:1398,61
DA:1567,7
DA:1570,7
DA:1572,7
DA:1573,7
DA:1576,0
DA:1577,0
DA:1578,0
DA:1580,0
DA:1581,0
DA:1582,0
DA:1586,0
DA:1587,0
DA:2317,8
LF:26
LH:13
end_of_record
TN:
SF:/usr/include/gtest/internal/gtest-internal.h
FN:294,294,_ZN7testing8internal13FloatingPointIfEC2ERKf
FN:316,316,_ZNK7testing8internal13FloatingPointIfE13exponent_bitsEv
FN:319,319,_ZNK7testing8internal13FloatingPointIfE13fraction_bitsEv
FN:325,329,_ZNK7testing8internal13FloatingPointIfE6is_nanEv
FN:337,344,_ZNK7testing8internal13FloatingPointIfE12AlmostEqualsERKS2_
FN:368,376,_ZN7testing8internal13FloatingPointIfE24SignAndMagnitudeToBiasedERKj
FN:380,385,_ZN7testing8internal13FloatingPointIfE38DistanceBetweenSignAndMagnitudeNumbersERKjS4_
FN:419,425,_ZN7testing8internal9GetTypeIdI11volume_testEEPKvv
FN:419,425,_ZN7testing8internal9GetTypeIdI12command_testEEPKvv
FN:419,425,_ZN7testing8internal9GetTypeIdI15pump_state_testEEPKvv
FN:419,425,_ZN7testing8internal9GetTypeIdI23pump_state_machine_testEEPKvv
FN:419,425,_ZN7testing8internal9GetTypeIdI8pumptestEEPKvv
FN:438,438,_ZN7testing8internal15TestFactoryBaseD0Ev
FN:438,438,_ZN7testing8internal15TestFactoryBaseD2Ev
FN:445,445,_ZN7testing8internal15TestFactoryBaseC2Ev
FN:457,457,_ZN7testing8internal15TestFactoryImplI30command_test_command_stop_TestE10CreateTestEv
FN:457,457,_ZN7testing8internal15TestFactoryImplI31command_test_command_pause_TestE10CreateTestEv
FN:457,457,_ZN7testing8internal15TestFactoryImplI31command_test_command_start_TestE10CreateTestEv
FN:457,457,_ZN7testing8internal15TestFactoryImplI32pumptest_alarm_notify_twice_TestE10CreateTestEv
FN:457,457,_ZN7testing8internal15TestFactoryImplI33command_test_command_setrate_TestE10CreateTestEv
FN:457,457,_ZN7testing8internal15TestFactoryImplI34pumptest_alarm_add_one_notify_TestE10CreateTestEv
FN:457,457,_ZN7testing8internal15TestFactoryImplI34pumptest_alarm_add_two_notify_TestE10CreateTestEv
FN:457,457,_ZN7testing8internal15TestFactoryImplI34volume_test_volume_zero_steps_TestE10CreateTestEv
FN:457,457,_ZN7testing8internal15TestFactoryImplI36volume_test_volume_reset_clears_TestE10CreateTestEv
FN:457,457,_ZN7testing8internal15TestFactoryImplI38pump_state_test_idle_stop_ignored_TestE10CreateTestEv
FN:457,457,_ZN7testing8internal15TestFactoryImplI39pump_state_test_idle_pause_ignored_TestE10CreateTestEv
FN:457,457,_ZN7testing8internal15TestFactoryImplI42pump_state_test_complete_stop_ignored_TestE10CreateTestEv
FN:457,457,_ZN7testing8internal15TestFactoryImplI42pump_state_test_idle_complete_ignored_TestE10CreateTestEv
FN:457,457,_ZN7testing8internal15TestFactoryImplI42pump_state_test_initial_state_is_idle_TestE10CreateTestEv
FN:457,457,_ZN7testing8internal15TestFactoryImplI42pump_state_test_pausing_pause_ignored_TestE10CreateTestEv
FN:457,457,_ZN7testing8internal15TestFactoryImplI42pump_state_test_priming_pause_ignored_TestE10CreateTestEv
FN:457,457,_ZN7testing8internal15TestFactoryImplI42volume_test_volume_one_rev_equals_2ml_TestE10CreateTestEv
FN:457,457,_ZN7testing8internal15TestFactoryImplI43pump_state_test_complete_pause_ignored_TestE10CreateTestEv
FN:457,457,_ZN7testing8internal15TestFactoryImplI43pump_state_test_idle_occlusion_ignored_TestE10CreateTestEv
FN:457,457,_ZN7testing8internal15TestFactoryImplI43pump_state_test_infusing_start_ignored_TestE10CreateTestEv
FN:457,457,_ZN7testing8internal15TestFactoryImplI43pump_state_test_pausing_stop_goes_idle_TestE10CreateTestEv
FN:457,457,_ZN7testing8internal15TestFactoryImplI43pump_state_test_priming_stop_goes_idle_TestE10CreateTestEv
FN:457,457,_ZN7testing8internal15TestFactoryImplI43volume_test_volume_half_rev_equals_1ml_TestE10CreateTestEv
FN:457,457,_ZN7testing8internal15TestFactoryImplI44pump_state_test_idle_start_goes_priming_TestE10CreateTestEv
FN:457,457,_ZN7testing8internal15TestFactoryImplI44pump_state_test_infusing_stop_goes_idle_TestE10CreateTestEv
FN:457,457,_ZN7testing8internal15TestFactoryImplI44pump_state_test_occlusion_pause_ignored_TestE10CreateTestEv
FN:457,457,_ZN7testing8internal15TestFactoryImplI44pump_state_test_occlusion_start_ignored_TestE10CreateTestEv
FN:457,457,_ZN7testing8internal15TestFactoryImplI45pump_state_test_occlusion_stop_goes_idle_TestE10CreateTestEv
FN:457,457,_ZN7testing8internal15TestFactoryImplI45pump_state_test_pausing_complete_ignored_TestE10CreateTestEv
FN:457,457,_ZN7testing8internal15TestFactoryImplI45pump_state_test_priming_complete_ignored_TestE10CreateTestEv
FN:457,457,_ZN7testing8internal15TestFactoryImplI45pump_state_test_setrate_sets_motor_delay_TestE10CreateTestEv
FN:457,457,_ZN7testing8internal15TestFactoryImplI46pump_state_test_complete_complete_ignored_TestE10CreateTestEv
FN:457,457,_ZN7testing8internal15TestFactoryImplI46pump_state_test_pausing_occlusion_ignored_TestE10CreateTestEv
FN:457,457,_ZN7testing8internal15TestFactoryImplI47pump_state_test_complete_occlusion_ignored_TestE10CreateTestEv
FN:457,457,_ZN7testing8internal15TestFactoryImplI47pump_state_test_occlusion_complete_ignored_TestE10CreateTestEv
FN:457,457,_ZN7testing8internal15TestFactoryImplI48pump_state_test_complete_start_goes_priming_TestE10CreateTestEv
FN:457,457,_ZN7testing8internal15TestFactoryImplI48pump_state_test_infusing_pause_goes_pausing_TestE10CreateTestEv
FN:457,457,_ZN7testing8internal15TestFactoryImplI48pump_state_test_occlusion_occlusion_ignored_TestE10CreateTestEv
FN:457,457,_ZN7testing8internal15TestFactoryImplI48pump_state_test_pausing_start_goes_infusing_TestE10CreateTestEv
FN:457,457,_ZN7testing8internal15TestFactoryImplI48pump_state_test_priming_start_goes_infusing_TestE10CreateTestEv
FN:457,457,_ZN7testing8internal15TestFactoryImplI49command_test_command_unknown_no_state_change_TestE10CreateTestEv
FN:457,457,_ZN7testing8internal15TestFactoryImplI49pump_state_machine_test_initialstate_as_idle_TestE10CreateTestEv
FN:457,457,_ZN7testing8internal15TestFactoryImplI50pump_state_machine_test_start_goes_to_priming_TestE10CreateTestEv
FN:457,457,_ZN7testing8internal15TestFactoryImplI52pump_state_test_infusing_complete_goes_complete_TestE10CreateTestEv
FN:457,457,_ZN7testing8internal15TestFactoryImplI53pump_state_machine_test_setrate_sets_motor_delay_TestE10CreateTestEv
FN:457,457,_ZN7testing8internal15TestFactoryImplI53pump_state_test_priming_occlusion_goes_occlusion_TestE10CreateTestEv
FN:457,457,_ZN7testing8internal15TestFactoryImplI54pump_state_machine_test_pausing_stop_goes_to_idle_TestE10CreateTestEv
FN:457,457,_ZN7testing8internal15TestFactoryImplI54pump_state_test_infusing_occlusion_goes_occlusion_TestE10CreateTestEv
FN:457,457,_ZN7testing8internal15TestFactoryImplI56pump_state_machine_test_occlusion_stop_goes_to_idle_TestE10CreateTestEv
FN:457,457,_ZN7testing8internal15TestFactoryImplI59pump_state_machine_test_complete_start_goes_to_priming_TestE10CreateTestEv
FN:457,457,_ZN7testing8internal15TestFactoryImplI59pump_state_machine_test_infusing_pause_goes_to_pausing_TestE10CreateTestEv
FN:457,457,_ZN7testing8internal15TestFactoryImplI59pump_state_machine_test_pausing_start_goes_to_infusing_TestE10CreateTestEv
FN:457,457,_ZN7testing8internal15TestFactoryImplI59pump_state_machine_test_priming_start_goes_to_infusing_TestE10CreateTestEv
FN:457,457,_ZN7testing8internal15TestFactoryImplI63pump_state_machine_test_infusing_complete_goes_to_complete_TestE10CreateTestEv
FN:457,457,_ZN7testing8internal15TestFactoryImplI65pump_state_machine_test_infusing_occlusion_goes_to_occlusion_TestE10CreateTestEv
FN:478,479,_ZN7testing8internal12CodeLocationC2ERKNSt7__cxx1112basic_stringIcSt11char_traitsIcESaIcEEEi
FN:491,494,_ZN7testing8internal19GetNotDefaultOrNullEPFvvES2_
FN:506,525,_ZN7testing8internal16SuiteApiResolverI11volume_testE19GetSetUpCaseOrSuiteEPKci
FN:506,525,_ZN7testing8internal16SuiteApiResolverI12command_testE19GetSetUpCaseOrSuiteEPKci
FN:506,525,_ZN7testing8internal16SuiteApiResolverI15pump_state_testE19GetSetUpCaseOrSuiteEPKci
FN:506,525,_ZN7testing8internal16SuiteApiResolverI23pump_state_machine_testE19GetSetUpCaseOrSuiteEPKci
FN:506,525,_ZN7testing8internal16SuiteApiResolverI8pumptestE19GetSetUpCaseOrSuiteEPKci
FN:527,546,_ZN7testing8internal16SuiteApiResolverI11volume_testE22GetTearDownCaseOrSuiteEPKci
FN:527,546,_ZN7testing8internal16SuiteApiResolverI12command_testE22GetTearDownCaseOrSuiteEPKci
FN:527,546,_ZN7testing8internal16SuiteApiResolverI15pump_state_testE22GetTearDownCaseOrSuiteEPKci
FN:527,546,_ZN7testing8internal16SuiteApiResolverI23pump_state_machine_testE22GetTearDownCaseOrSuiteEPKci
FN:527,546,_ZN7testing8internal16SuiteApiResolverI8pumptestE22GetTearDownCaseOrSuiteEPKci
FNDA:14,_ZN7testing8internal13FloatingPointIfEC2ERKf
FNDA:14,_ZNK7testing8internal13FloatingPointIfE13exponent_bitsEv
FNDA:0,_ZNK7testing8internal13FloatingPointIfE13fraction_bitsEv
FNDA:14,_ZNK7testing8internal13FloatingPointIfE6is_nanEv
FNDA:7,_ZNK7testing8internal13FloatingPointIfE12AlmostEqualsERKS2_
FNDA:14,_ZN7testing8internal13FloatingPointIfE24SignAndMagnitudeToBiasedERKj
FNDA:7,_ZN7testing8internal13FloatingPointIfE38DistanceBetweenSignAndMagnitudeNumbersERKjS4_
FNDA:4,_ZN7testing8internal9GetTypeIdI11volume_testEEPKvv
FNDA:5,_ZN7testing8internal9GetTypeIdI12command_testEEPKvv
FNDA:32,_ZN7testing8internal9GetTypeIdI15pump_state_testEEPKvv
FNDA:11,_ZN7testing8internal9GetTypeIdI23pump_state_machine_testEEPKvv
FNDA:12,_ZN7testing8internal9GetTypeIdI8pumptestEEPKvv
FNDA:0,_ZN7testing8internal15TestFactoryBaseD0Ev
FNDA:64,_ZN7testing8internal15TestFactoryBaseD2Ev
FNDA:64,_ZN7testing8internal15TestFactoryBaseC2Ev
FNDA:1,_ZN7testing8internal15TestFactoryImplI30command_test_command_stop_TestE10CreateTestEv
FNDA:1,_ZN7testing8internal15TestFactoryImplI31command_test_command_pause_TestE10CreateTestEv
FNDA:1,_ZN7testing8internal15TestFactoryImplI31command_test_command_start_TestE10CreateTestEv
FNDA:4,_ZN7testing8internal15TestFactoryImplI32pumptest_alarm_notify_twice_TestE10CreateTestEv
FNDA:1,_ZN7testing8internal15TestFactoryImplI33command_test_command_setrate_TestE10CreateTestEv
FNDA:4,_ZN7testing8internal15TestFactoryImplI34pumptest_alarm_add_one_notify_TestE10CreateTestEv
FNDA:4,_ZN7testing8internal15TestFactoryImplI34pumptest_alarm_add_two_notify_TestE10CreateTestEv
FNDA:1,_ZN7testing8internal15TestFactoryImplI34volume_test_volume_zero_steps_TestE10CreateTestEv
FNDA:1,_ZN7testing8internal15TestFactoryImplI36volume_test_volume_reset_clears_TestE10CreateTestEv
FNDA:1,_ZN7testing8internal15TestFactoryImplI38pump_state_test_idle_stop_ignored_TestE10CreateTestEv
FNDA:1,_ZN7testing8internal15TestFactoryImplI39pump_state_test_idle_pause_ignored_TestE10CreateTestEv
FNDA:1,_ZN7testing8internal15TestFactoryImplI42pump_state_test_complete_stop_ignored_TestE10CreateTestEv
FNDA:1,_ZN7testing8internal15TestFactoryImplI42pump_state_test_idle_complete_ignored_TestE10CreateTestEv
FNDA:1,_ZN7testing8internal15TestFactoryImplI42pump_state_test_initial_state_is_idle_TestE10CreateTestEv
FNDA:1,_ZN7testing8internal15TestFactoryImplI42pump_state_test_pausing_pause_ignored_TestE10CreateTestEv
FNDA:1,_ZN7testing8internal15TestFactoryImplI42pump_state_test_priming_pause_ignored_TestE10CreateTestEv
FNDA:1,_ZN7testing8internal15TestFactoryImplI42volume_test_volume_one_rev_equals_2ml_TestE10CreateTestEv
FNDA:1,_ZN7testing8internal15TestFactoryImplI43pump_state_test_complete_pause_ignored_TestE10CreateTestEv
FNDA:1,_ZN7testing8internal15TestFactoryImplI43pump_state_test_idle_occlusion_ignored_TestE10CreateTestEv
FNDA:1,_ZN7testing8internal15TestFactoryImplI43pump_state_test_infusing_start_ignored_TestE10CreateTestEv
FNDA:1,_ZN7testing8internal15TestFactoryImplI43pump_state_test_pausing_stop_goes_idle_TestE10CreateTestEv
FNDA:1,_ZN7testing8internal15TestFactoryImplI43pump_state_test_priming_stop_goes_idle_TestE10CreateTestEv
FNDA:1,_ZN7testing8internal15TestFactoryImplI43volume_test_volume_half_rev_equals_1ml_TestE10CreateTestEv
FNDA:1,_ZN7testing8internal15TestFactoryImplI44pump_state_test_idle_start_goes_priming_TestE10CreateTestEv
FNDA:1,_ZN7testing8internal15TestFactoryImplI44pump_state_test_infusing_stop_goes_idle_TestE10CreateTestEv
FNDA:1,_ZN7testing8internal15TestFactoryImplI44pump_state_test_occlusion_pause_ignored_TestE10CreateTestEv
FNDA:1,_ZN7testing8internal15TestFactoryImplI44pump_state_test_occlusion_start_ignored_TestE10CreateTestEv
FNDA:1,_ZN7testing8internal15TestFactoryImplI45pump_state_test_occlusion_stop_goes_idle_TestE10CreateTestEv
FNDA:1,_ZN7testing8internal15TestFactoryImplI45pump_state_test_pausing_complete_ignored_TestE10CreateTestEv
FNDA:1,_ZN7testing8internal15TestFactoryImplI45pump_state_test_priming_complete_ignored_TestE10CreateTestEv
FNDA:1,_ZN7testing8internal15TestFactoryImplI45pump_state_test_setrate_sets_motor_delay_TestE10CreateTestEv
FNDA:1,_ZN7testing8internal15TestFactoryImplI46pump_state_test_complete_complete_ignored_TestE10CreateTestEv
FNDA:1,_ZN7testing8internal15TestFactoryImplI46pump_state_test_pausing_occlusion_ignored_TestE10CreateTestEv
FNDA:1,_ZN7testing8internal15TestFactoryImplI47pump_state_test_complete_occlusion_ignored_TestE10CreateTestEv
FNDA:1,_ZN7testing8internal15TestFactoryImplI47pump_state_test_occlusion_complete_ignored_TestE10CreateTestEv
FNDA:1,_ZN7testing8internal15TestFactoryImplI48pump_state_test_complete_start_goes_priming_TestE10CreateTestEv
FNDA:1,_ZN7testing8internal15TestFactoryImplI48pump_state_test_infusing_pause_goes_pausing_TestE10CreateTestEv
FNDA:1,_ZN7testing8internal15TestFactoryImplI48pump_state_test_occlusion_occlusion_ignored_TestE10CreateTestEv
FNDA:1,_ZN7testing8internal15TestFactoryImplI48pump_state_test_pausing_start_goes_infusing_TestE10CreateTestEv
FNDA:1,_ZN7testing8internal15TestFactoryImplI48pump_state_test_priming_start_goes_infusing_TestE10CreateTestEv
FNDA:1,_ZN7testing8internal15TestFactoryImplI49command_test_command_unknown_no_state_change_TestE10CreateTestEv
FNDA:1,_ZN7testing8internal15TestFactoryImplI49pump_state_machine_test_initialstate_as_idle_TestE10CreateTestEv
FNDA:1,_ZN7testing8internal15TestFactoryImplI50pump_state_machine_test_start_goes_to_priming_TestE10CreateTestEv
FNDA:1,_ZN7testing8internal15TestFactoryImplI52pump_state_test_infusing_complete_goes_complete_TestE10CreateTestEv
FNDA:1,_ZN7testing8internal15TestFactoryImplI53pump_state_machine_test_setrate_sets_motor_delay_TestE10CreateTestEv
FNDA:1,_ZN7testing8internal15TestFactoryImplI53pump_state_test_priming_occlusion_goes_occlusion_TestE10CreateTestEv
FNDA:1,_ZN7testing8internal15TestFactoryImplI54pump_state_machine_test_pausing_stop_goes_to_idle_TestE10CreateTestEv
FNDA:1,_ZN7testing8internal15TestFactoryImplI54pump_state_test_infusing_occlusion_goes_occlusion_TestE10CreateTestEv
FNDA:1,_ZN7testing8internal15TestFactoryImplI56pump_state_machine_test_occlusion_stop_goes_to_idle_TestE10CreateTestEv
FNDA:1,_ZN7testing8internal15TestFactoryImplI59pump_state_machine_test_complete_start_goes_to_priming_TestE10CreateTestEv
FNDA:1,_ZN7testing8internal15TestFactoryImplI59pump_state_machine_test_infusing_pause_goes_to_pausing_TestE10CreateTestEv
FNDA:1,_ZN7testing8internal15TestFactoryImplI59pump_state_machine_test_pausing_start_goes_to_infusing_TestE10CreateTestEv
FNDA:1,_ZN7testing8internal15TestFactoryImplI59pump_state_machine_test_priming_start_goes_to_infusing_TestE10CreateTestEv
FNDA:1,_ZN7testing8internal15TestFactoryImplI63pump_state_machine_test_infusing_complete_goes_to_complete_TestE10CreateTestEv
FNDA:1,_ZN7testing8internal15TestFactoryImplI65pump_state_machine_test_infusing_occlusion_goes_to_occlusion_TestE10CreateTestEv
FNDA:64,_ZN7testing8internal12CodeLocationC2ERKNSt7__cxx1112basic_stringIcSt11char_traitsIcESaIcEEEi
FNDA:256,_ZN7testing8internal19GetNotDefaultOrNullEPFvvES2_
FNDA:4,_ZN7testing8internal16SuiteApiResolverI11volume_testE19GetSetUpCaseOrSuiteEPKci
FNDA:5,_ZN7testing8internal16SuiteApiResolverI12command_testE19GetSetUpCaseOrSuiteEPKci
FNDA:32,_ZN7testing8internal16SuiteApiResolverI15pump_state_testE19GetSetUpCaseOrSuiteEPKci
FNDA:11,_ZN7testing8internal16SuiteApiResolverI23pump_state_machine_testE19GetSetUpCaseOrSuiteEPKci
FNDA:12,_ZN7testing8internal16SuiteApiResolverI8pumptestE19GetSetUpCaseOrSuiteEPKci
FNDA:4,_ZN7testing8internal16SuiteApiResolverI11volume_testE22GetTearDownCaseOrSuiteEPKci
FNDA:5,_ZN7testing8internal16SuiteApiResolverI12command_testE22GetTearDownCaseOrSuiteEPKci
FNDA:32,_ZN7testing8internal16SuiteApiResolverI15pump_state_testE22GetTearDownCaseOrSuiteEPKci
FNDA:11,_ZN7testing8internal16SuiteApiResolverI23pump_state_machine_testE22GetTearDownCaseOrSuiteEPKci
FNDA:12,_ZN7testing8internal16SuiteApiResolverI8pumptestE22GetTearDownCaseOrSuiteEPKci
FNF:82
FNH:80
DA:294,14
DA:316,14
DA:319,0
DA:325,14
DA:328,14
DA:337,7
DA:340,7
DA:342,7
DA:343,7
DA:368,14
DA:369,14
DA:371,0
DA:374,14
DA:380,7
DA:382,7
DA:383,7
DA:384,7
DA:419,64
DA:424,64
DA:438,64
DA:445,64
DA:457,64
DA:478,64
DA:479,64
DA:491,256
DA:493,256
DA:506,64
DA:510,64
DA:512,64
DA:514,64
DA:517,0
DA:519,64
DA:527,64
DA:531,64
DA:533,64
DA:535,64
DA:538,0
DA:540,64
LF:38
LH:34
end_of_record
TN:
SF:/usr/include/gtest/internal/gtest-port.h
FN:1042,1042,_ZN7testing8internal8GTestLog9GetStreamEv
FNDA:0,_ZN7testing8internal8GTestLog9GetStreamEv
FNF:1
FNH:0
DA:1042,0
LF:1
LH:0
end_of_record
TN:
SF:/usr/include/x86_64-linux-gnu/c++/13/bits/c++config.h
FN:540,551,_ZSt23__is_constant_evaluatedv
FNDA:1914,_ZSt23__is_constant_evaluatedv
FNF:1
FNH:1
DA:540,1914
DA:547,1914
LF:2
LH:2
end_of_record
